(innet
Network
p0
(dp1
S'hidden_end'
p2
I128
sS'output_node_count'
p3
I4
sS'L'
p4
I3
sS'hidden_node_count'
p5
I64
sS'input_node_count'
p6
I64
sS'weights'
p7
ccollections
defaultdict
p8
(g8
tp9
Rp10
I0
g8
(tRp11
I64
F-0.012326934948002247
sI65
F0.006143852432407392
sI66
F-0.0034020702565394603
sI67
F-0.0023373931455362455
sI68
F-0.0023392416285506114
sI69
F0.013686656217403366
sI70
F-0.004822304619448964
sI71
F-0.0015412230956026963
sI72
F0.009423789415622682
sI73
F0.0007659116643657179
sI74
F-0.014751387330321919
sI75
F-0.0060180806035671185
sI76
F0.00730950019723808
sI77
F-0.013605791866730303
sI78
F0.008301578745745787
sI79
F0.00323534194835712
sI80
F-0.006673700645251234
sI81
F0.001993227458276996
sI82
F-0.011822895693711356
sI83
F0.008787527053426619
sI84
F-0.01587930139260492
sI85
F0.012146812459141464
sI86
F-0.0010348457090130854
sI87
F0.01397954579834176
sI88
F-0.002818118460069782
sI89
F0.009842415699783827
sI90
F0.009658488083794598
sI91
F0.005952780914332568
sI92
F-0.0037567804159710106
sI93
F0.007902308823752742
sI94
F-0.0040762116681735145
sI95
F0.023716615899735612
sI96
F0.01316334171509174
sI97
F-0.0015461061836485365
sI98
F-0.0031834778897522936
sI99
F0.014361635943755243
sI100
F-0.005867089668893563
sI101
F-0.006614305520833195
sI102
F-0.0002642088026068685
sI103
F0.007662360870279224
sI104
F0.002684992119913234
sI105
F-0.0011253407078626208
sI106
F-0.01040615500044723
sI107
F0.00011426740088285094
sI108
F0.02218618790461959
sI109
F-0.0172325335437419
sI110
F-0.01274363930817259
sI111
F0.004002016338072072
sI112
F-0.0030593910133569742
sI113
F0.0037091608843249665
sI114
F0.008916596968053843
sI115
F0.01817603622308298
sI116
F0.013158232074274885
sI117
F-0.00016250422766664167
sI118
F0.0032993717782550244
sI119
F0.00040068623832108236
sI120
F-0.023158258371147218
sI121
F-0.004028910637166438
sI122
F0.014194483086417565
sI123
F0.0030521576161959343
sI124
F-0.0005617720988697286
sI125
F0.006939043570569819
sI126
F-0.0015085731241587766
sI127
F-0.007763641015650139
ssI1
g8
(tRp12
I64
F-0.011731831290720241
sI65
F0.004102171507066354
sI66
F-0.0025966696681658814
sI67
F-0.0013107063379495245
sI68
F0.00029074390989149526
sI69
F0.008840479558874147
sI70
F-0.005296899813364373
sI71
F-0.002485780962281467
sI72
F0.00953924000958646
sI73
F0.0003402952262949692
sI74
F-0.0070835400404119665
sI75
F-0.00802739820632634
sI76
F0.003177534181440305
sI77
F-0.012452431200000055
sI78
F0.006111744252392973
sI79
F0.004913222458186359
sI80
F-0.0026490306933257993
sI81
F-0.0018024664337969495
sI82
F-0.009588577234983646
sI83
F0.003310835391567099
sI84
F-0.01251833832388066
sI85
F0.007744483189768477
sI86
F-0.0006734475717932091
sI87
F0.010738909796318833
sI88
F-0.0013327817678561028
sI89
F0.006457329212006884
sI90
F0.007430893758041045
sI91
F0.00346930412695958
sI92
F0.0031557766634938375
sI93
F0.008398646942716543
sI94
F-0.0031530796357954246
sI95
F0.016261450604163254
sI96
F0.009838929854408226
sI97
F-0.0018260170420095058
sI98
F-0.006561004865554928
sI99
F0.012279121246548763
sI100
F-0.0027007232725334883
sI101
F-0.0006367952402312722
sI102
F0.00039701969021094566
sI103
F0.006833047374464569
sI104
F0.0019474612660251103
sI105
F0.0009212637466955386
sI106
F-0.007890221848085292
sI107
F3.774810650891111e-05
sI108
F0.018195380804402254
sI109
F-0.011808010199504095
sI110
F-0.011443010409332554
sI111
F0.0040263938803428035
sI112
F-0.002911245113400764
sI113
F0.000876245892684275
sI114
F0.00820654344035515
sI115
F0.01252180621123372
sI116
F0.007790886293459403
sI117
F0.0023810468267097115
sI118
F0.0022714889939589246
sI119
F0.0023205259044015276
sI120
F-0.021201998984999432
sI121
F-0.0014621164994763828
sI122
F0.007944204442083384
sI123
F0.00013927853890489969
sI124
F-0.0005312301564381669
sI125
F0.00504494169522323
sI126
F0.0004765950691088831
sI127
F-0.00752336590662011
ssI2
g8
(tRp13
I64
F-0.006459571915817131
sI65
F0.004142189543606211
sI66
F-0.0006586277156974399
sI67
F-0.0011511076449741444
sI68
F0.001010772557940426
sI69
F0.007158987514284539
sI70
F-0.0035947955657548367
sI71
F-0.002008103638627638
sI72
F0.007502538326743477
sI73
F0.00025912321395965673
sI74
F-0.00982714058168591
sI75
F-0.004588639585917257
sI76
F0.0007371127745023445
sI77
F-0.008005224349259963
sI78
F0.00515137637312886
sI79
F0.0034252212996906148
sI80
F-0.00506966794649053
sI81
F0.0003616718991193007
sI82
F-0.005170308458168024
sI83
F0.00480730136714577
sI84
F-0.008965391921947093
sI85
F0.0004693802830200591
sI86
F0.0008437433625047696
sI87
F0.012537945678207835
sI88
F-0.002029481460452607
sI89
F0.0009959343719349039
sI90
F0.007733267847828224
sI91
F0.00012190736710947645
sI92
F-0.0006405502498235035
sI93
F0.006917451733114251
sI94
F-0.003296506388406434
sI95
F0.01291492759802392
sI96
F0.0063640212693128525
sI97
F-0.002056069418241345
sI98
F-0.006321102307717105
sI99
F0.011019976226801518
sI100
F-0.0011043577988253176
sI101
F-0.0022946107844447378
sI102
F-0.00032013288830362417
sI103
F0.0039903354703951215
sI104
F0.0005647765916955828
sI105
F0.0009077952724623516
sI106
F-0.008692281432565438
sI107
F-0.0011291043844739374
sI108
F0.014712160671968198
sI109
F-0.011596400123757919
sI110
F-0.00778354274159861
sI111
F0.0008293079419909517
sI112
F-0.0006081117157033345
sI113
F-0.002323067919836431
sI114
F0.0063471724435465934
sI115
F0.01012235364951091
sI116
F0.0021608109880249383
sI117
F5.1708963722818453e-05
sI118
F0.0031667305909223605
sI119
F-0.0012348714929970967
sI120
F-0.01728922683726169
sI121
F-0.00201541601900609
sI122
F0.004708702410397311
sI123
F-0.0021554657560828357
sI124
F-0.0018582912594997574
sI125
F0.0034747775404577446
sI126
F0.0014964558485240015
sI127
F-0.005481021810065719
ssI3
g8
(tRp14
I64
F-0.0005342576444762173
sI65
F0.005599166512622972
sI66
F-0.0005027899564869245
sI67
F-0.0004913280640307733
sI68
F-0.0017414871994458512
sI69
F0.0020008725943511736
sI70
F-0.004192645313530253
sI71
F0.0002949108943535032
sI72
F0.008864724376981293
sI73
F-0.002920823702370774
sI74
F-0.004617729715475891
sI75
F-0.007443591943158599
sI76
F-0.004914388114110534
sI77
F-0.0053958209076794186
sI78
F0.004613782104972762
sI79
F0.0033347148793930275
sI80
F-0.002829121598522099
sI81
F0.005383780344494004
sI82
F-0.004029449905732656
sI83
F0.005284807894992514
sI84
F-0.01000632004795024
sI85
F-0.003792023492078051
sI86
F0.000541288490494683
sI87
F0.010899353209479583
sI88
F-0.0018101910599785955
sI89
F-0.0030846169447621506
sI90
F0.006034578419580076
sI91
F-0.0023755360111498004
sI92
F-0.0021747878413709335
sI93
F0.0071879190539454706
sI94
F-0.0016654935300693952
sI95
F0.004899299861318008
sI96
F0.008219212259017183
sI97
F-0.007516698001810631
sI98
F-0.011604227782798562
sI99
F0.012190914776562556
sI100
F0.00011398655312394267
sI101
F0.0028861172926782437
sI102
F-0.00413593053255426
sI103
F0.007483489780457921
sI104
F-0.006458432283292077
sI105
F-0.0032888816685541695
sI106
F-0.005835359301224667
sI107
F-0.0001330559184982028
sI108
F0.014512351447731461
sI109
F-0.0058581769630318085
sI110
F-0.003541082627694326
sI111
F-0.005130412988482764
sI112
F0.001945083760932234
sI113
F-0.004570697133913589
sI114
F0.0034589716390607916
sI115
F0.004984893358135927
sI116
F-0.005978870290031022
sI117
F-0.001113733262062091
sI118
F0.0047905076865358675
sI119
F-0.0039368899269898614
sI120
F-0.011847007658884995
sI121
F-0.0018673553218864648
sI122
F-0.0017115069929643178
sI123
F-0.008471591323462487
sI124
F-0.0050442691959493805
sI125
F0.007161465580766712
sI126
F0.0004227380818813509
sI127
F0.0011837871105012166
ssI4
g8
(tRp15
I64
F0.0048832268937388165
sI65
F0.007238964039845767
sI66
F-0.001190912818786689
sI67
F-3.452044459043672e-05
sI68
F-0.005569142412640237
sI69
F-0.0009438897376958969
sI70
F-0.001644483933082983
sI71
F0.0033959028238937147
sI72
F0.008248273890092384
sI73
F-0.0044841396807424804
sI74
F-0.004260232713251975
sI75
F-0.003582674248330423
sI76
F-0.0060784837130802
sI77
F-0.0031076044953514525
sI78
F0.0018715393085622517
sI79
F0.0022147358824920753
sI80
F-0.0026844749169682887
sI81
F0.008509385847692095
sI82
F-0.0023021549890577344
sI83
F0.005999618022674983
sI84
F-0.002002935329631066
sI85
F-0.01054816619462546
sI86
F-0.0032099146701276044
sI87
F0.010844104844306035
sI88
F-0.0006834060296693458
sI89
F-0.006607016834367335
sI90
F0.005164116000138411
sI91
F-0.0070783306170193565
sI92
F-0.0027473473495017216
sI93
F0.007952112276102865
sI94
F-0.0007794540464333185
sI95
F-0.003327298977531999
sI96
F0.012418750297311393
sI97
F-0.006782489297477122
sI98
F-0.007250932756466257
sI99
F0.010226847214009845
sI100
F-0.001963547571291458
sI101
F0.0008575155838078684
sI102
F-0.006094887460105226
sI103
F0.010720791278610331
sI104
F-0.010613947713534154
sI105
F-0.000486964412187787
sI106
F-0.0019520260046177163
sI107
F-0.00014041893186334914
sI108
F0.015236599231523625
sI109
F-0.005489057065452665
sI110
F-0.0007750405149594779
sI111
F-0.007930770633826625
sI112
F0.007382602334181692
sI113
F-0.005775205048461376
sI114
F0.0006356366665856215
sI115
F0.00047042743832685136
sI116
F-0.007854817327211895
sI117
F-0.001551405024743227
sI118
F0.009628455634047578
sI119
F-0.006008004818762411
sI120
F-0.004646516490700463
sI121
F-0.0038278958865624073
sI122
F-0.005994549734277364
sI123
F-0.006860328168230777
sI124
F-0.0075892500796230986
sI125
F0.011450193637197783
sI126
F-0.005154107965594451
sI127
F0.0026396789327788463
ssI5
g8
(tRp16
I64
F0.011140208627888639
sI65
F0.008272509780267648
sI66
F0.0018678731668146334
sI67
F0.0012917838306895405
sI68
F-0.009776282310643834
sI69
F-0.0015183455146496193
sI70
F-0.0028419014182961004
sI71
F0.0029160110474742745
sI72
F0.007672087445486519
sI73
F-0.0037885414837710678
sI74
F-0.0013286610624169827
sI75
F0.0035424906517276373
sI76
F-0.0066974645845485955
sI77
F-0.0004728408527892574
sI78
F0.001375119960656005
sI79
F0.000424489206238991
sI80
F-0.0025303732288372576
sI81
F0.010385655525646761
sI82
F-0.002145316922145423
sI83
F0.006843954639194734
sI84
F-0.0005659003682477188
sI85
F-0.008807271302871133
sI86
F-0.00312118723103993
sI87
F0.007597382158621519
sI88
F0.002248092204385399
sI89
F-0.005026867556665411
sI90
F0.003826997239820694
sI91
F-0.007016917778044164
sI92
F-8.185623056014777e-05
sI93
F0.007573607467190136
sI94
F-0.00019377354684846433
sI95
F-0.005875146085432745
sI96
F0.010365736272944568
sI97
F-0.007672396578178677
sI98
F-0.0014549539301228589
sI99
F0.00751410431775624
sI100
F-0.0015336857884402457
sI101
F0.0010452522985915894
sI102
F-0.013578324544116869
sI103
F0.009936782271829637
sI104
F-0.008243440077360725
sI105
F-0.002046788922596436
sI106
F0.0021522883161669303
sI107
F-2.577488632784152e-05
sI108
F0.01323975325188538
sI109
F-0.0006484646633067669
sI110
F0.0015149613498024776
sI111
F-0.008474523095233775
sI112
F0.006172186751856258
sI113
F-0.0019346050392578223
sI114
F0.00025578801933349125
sI115
F-0.0004147647252446135
sI116
F-0.00913911425604986
sI117
F-0.004272124001782341
sI118
F0.010237423493509118
sI119
F-0.007802776069272303
sI120
F0.002298356213303846
sI121
F-0.003753556289039154
sI122
F-0.0038269469982067286
sI123
F-0.0029592094468697027
sI124
F-0.011738352574506705
sI125
F0.010329586101430867
sI126
F-0.008486800362741374
sI127
F0.003291224534555648
ssI6
g8
(tRp17
I64
F0.015406120945608092
sI65
F0.008994924795820715
sI66
F0.0014890733459376813
sI67
F-0.0005514610834368249
sI68
F-0.013022419668431427
sI69
F-0.0038901059044036627
sI70
F-0.00037668597532620514
sI71
F0.005100103117146937
sI72
F0.006993884625254134
sI73
F-0.0039634109028598135
sI74
F-0.001416937692590738
sI75
F0.008325718210644689
sI76
F-0.006354886142200006
sI77
F0.0023996453007058684
sI78
F-0.002185917197051769
sI79
F-0.0003031119663973496
sI80
F0.00046717492638003155
sI81
F0.012026716997430407
sI82
F-0.0010848323455308617
sI83
F0.0038007108357790828
sI84
F0.004869626833721109
sI85
F-0.005467253998747784
sI86
F-0.0037459167690444316
sI87
F0.006344500676632867
sI88
F0.005642717639832606
sI89
F-0.0004066729742167131
sI90
F0.0004677635610663055
sI91
F-0.007671057975382294
sI92
F-0.002710194013578915
sI93
F0.007312059060948278
sI94
F0.0017973534382733135
sI95
F-0.005820661200888462
sI96
F0.008951871009489134
sI97
F-0.009869327281098864
sI98
F0.007548587522913295
sI99
F0.0037599470201368033
sI100
F-0.006575285879729266
sI101
F0.0010358930351281818
sI102
F-0.01760380959148803
sI103
F0.006700064462826274
sI104
F-0.00903086799266559
sI105
F-0.002986096849056254
sI106
F0.008812541356273497
sI107
F-0.0010625724015877443
sI108
F0.008285338186045514
sI109
F0.0001472843624625783
sI110
F0.005258490275488262
sI111
F-0.00929662878460216
sI112
F0.004615109213547246
sI113
F0.0009745489900996508
sI114
F-0.001873656983072065
sI115
F-0.0010053917876130566
sI116
F-0.007416047932058189
sI117
F-0.006537996812258884
sI118
F0.012578186445892902
sI119
F-0.008540837484176573
sI120
F0.009414258077679791
sI121
F-0.0060726473823993175
sI122
F-0.0029310707553511467
sI123
F0.003263954667667006
sI124
F-0.0144520781764748
sI125
F0.009257670444948608
sI126
F-0.009627962427836458
sI127
F0.006751613358807119
ssI7
g8
(tRp18
I64
F0.024722681718414442
sI65
F0.012052230203921595
sI66
F0.0028367834124295483
sI67
F-0.0015893072746475888
sI68
F-0.01400231984040528
sI69
F-0.0015107852672907908
sI70
F-0.002232795976618962
sI71
F0.0035968560330096183
sI72
F0.007717523744604167
sI73
F-0.0059650348579572115
sI74
F-0.005907210075996544
sI75
F0.012398753061576161
sI76
F-0.006808219416649094
sI77
F0.003170453611440731
sI78
F-0.002614339696460505
sI79
F-0.00030256482713421335
sI80
F-0.00466246446048939
sI81
F0.01898033067945934
sI82
F-0.0017929104010019356
sI83
F0.00769443256730355
sI84
F0.010167298013759055
sI85
F-0.006009338150945314
sI86
F-0.005130136429063781
sI87
F0.006344496532514766
sI88
F0.007702332902453526
sI89
F0.0006050948507057539
sI90
F-0.0002977310425623346
sI91
F-0.009276428380777328
sI92
F-0.008427109268743776
sI93
F0.0076319694054282315
sI94
F-0.0005534085135651788
sI95
F-0.002219996149214403
sI96
F0.012938680571282307
sI97
F-0.007417436949031749
sI98
F0.014848725933165913
sI99
F0.005474608486942308
sI100
F-0.007523946493537136
sI101
F-0.0005212291195611711
sI102
F-0.022784659087547027
sI103
F0.008124582036866553
sI104
F-0.012410942794555638
sI105
F-0.003228762688135727
sI106
F0.011932308369411867
sI107
F-0.0007852142727037859
sI108
F0.012473873031583182
sI109
F-0.0017909306753907041
sI110
F0.004355724351671287
sI111
F-0.01283471118625179
sI112
F0.005022415710944924
sI113
F0.0059843569659441325
sI114
F-0.0004990067398704211
sI115
F0.0024951818510126275
sI116
F-0.004919022496279536
sI117
F-0.010750911410824491
sI118
F0.016376419432519596
sI119
F-0.012713542996670688
sI120
F0.010378387580133642
sI121
F-0.00789244271120379
sI122
F-0.003024203106683594
sI123
F0.004048679649411734
sI124
F-0.01861092820567805
sI125
F0.009933788470274133
sI126
F-0.013373541208783427
sI127
F0.007594150624424013
ssI8
g8
(tRp19
I64
F-0.005335690825805889
sI65
F0.004497478495324797
sI66
F-0.0018259118802152054
sI67
F-0.0027826464787968543
sI68
F-0.0035252451437509575
sI69
F0.010773184895519464
sI70
F-0.0031367415853204225
sI71
F7.293088657784892e-05
sI72
F0.005447463402513858
sI73
F0.0019465181299193185
sI74
F-0.013875870069596683
sI75
F-0.003667580774538754
sI76
F0.00785905522707595
sI77
F-0.008132686477519658
sI78
F0.004507006649554257
sI79
F0.002039391383559827
sI80
F-0.008321276020741281
sI81
F0.0021389084741507323
sI82
F-0.00743159238768566
sI83
F0.006736807790125537
sI84
F-0.00824326595588323
sI85
F0.010319844981900918
sI86
F-0.0001262729587566545
sI87
F0.009087834958370688
sI88
F0.0009712949192343634
sI89
F0.0088066911558502
sI90
F0.006400041769808752
sI91
F0.003433221603685911
sI92
F-0.007580712725826898
sI93
F0.00393688783244062
sI94
F-0.0029273036437811014
sI95
F0.018717584490032406
sI96
F0.007856902565142763
sI97
F-0.002426801944758433
sI98
F0.0018677666363708316
sI99
F0.008175352259017579
sI100
F-0.007586840553295176
sI101
F-0.0077051575228883114
sI102
F-0.001879689579470548
sI103
F0.0017503389191804706
sI104
F0.0015791280822040252
sI105
F-0.0006098642140032036
sI106
F-0.004512851662859185
sI107
F-0.0033867319133080304
sI108
F0.01184416277929693
sI109
F-0.015284767000665054
sI110
F-0.009231219428648903
sI111
F0.0023534772650134713
sI112
F-0.004146156032307527
sI113
F0.002954727655013477
sI114
F0.006426842299976127
sI115
F0.014027577045227274
sI116
F0.010417494254803029
sI117
F-0.006131346645544925
sI118
F0.004400135675360248
sI119
F-0.001908736845758013
sI120
F-0.017415947772112368
sI121
F-0.005368714585966973
sI122
F0.011624027041701575
sI123
F0.0063148908125047615
sI124
F-0.0035974856735745287
sI125
F0.005830515172318581
sI126
F-0.0014652115861808837
sI127
F-0.005495521898136091
ssI9
g8
(tRp20
I64
F-0.004599042645157555
sI65
F0.00019742185361491395
sI66
F-0.0018999300480021333
sI67
F-0.0007224818251243369
sI68
F5.3341551342276273e-05
sI69
F0.00777155356388502
sI70
F-0.0008318965293326518
sI71
F-0.0009562955291918959
sI72
F0.004912498973357888
sI73
F0.0005692244426642977
sI74
F-0.006546744404946157
sI75
F-0.0019035365381719592
sI76
F0.004985843282739755
sI77
F-0.004068377661659848
sI78
F0.0045398499693896045
sI79
F0.0022798146907398917
sI80
F-0.005083329607544483
sI81
F0.001273633200470668
sI82
F-0.003190028643820721
sI83
F0.0008308985726269227
sI84
F-0.007866278381267992
sI85
F0.006353622487143067
sI86
F-0.0001589717772170065
sI87
F0.004890307791289638
sI88
F0.0010148048885910497
sI89
F0.0059060812440314735
sI90
F0.0019217539911428033
sI91
F0.0020423856813029987
sI92
F-0.0023757220407554236
sI93
F0.00292301024103048
sI94
F-0.0021198580559998468
sI95
F0.013029577112857505
sI96
F0.006243478501002321
sI97
F-0.0006743086560332243
sI98
F0.0008545045457841105
sI99
F0.003774565396057294
sI100
F-0.0038539205382805185
sI101
F-0.0030482207166492217
sI102
F-0.0017429529756745371
sI103
F0.0021792699103063084
sI104
F0.0013333349064377532
sI105
F-0.0017933752006177623
sI106
F-0.004089780899378917
sI107
F-0.00027369947375113313
sI108
F0.009169137573429433
sI109
F-0.006259395387226601
sI110
F-0.005443754908946464
sI111
F0.001607755893615087
sI112
F-0.0026293730915492
sI113
F0.002244921458235429
sI114
F0.0034465830816159996
sI115
F0.00883761338194087
sI116
F0.005739872545653735
sI117
F-0.0009990956554841368
sI118
F0.0020100897971622135
sI119
F0.0017948786255651266
sI120
F-0.010827810107583156
sI121
F-0.0008112913175953265
sI122
F0.005155211392726415
sI123
F0.002810279826314404
sI124
F-0.0010797797435265345
sI125
F0.004374082338018997
sI126
F-0.0001635000664957065
sI127
F-0.0022703199240532786
ssI10
g8
(tRp21
I64
F-0.0020442796839784273
sI65
F5.480591213291754e-05
sI66
F0.0011620895806313221
sI67
F-0.0005176787756100368
sI68
F0.0014662049130700597
sI69
F0.0062486235828414245
sI70
F-0.0023124947377596364
sI71
F0.000480955680257492
sI72
F0.0012596958548798988
sI73
F0.0003707588445057915
sI74
F-0.0054900932823358445
sI75
F-0.0004689344294732604
sI76
F0.002534193543951375
sI77
F-0.004102537700941524
sI78
F0.0034575357224292357
sI79
F0.0009683439828765026
sI80
F-0.00134669007549932
sI81
F0.00119849014914627
sI82
F-0.0013647537165333123
sI83
F0.0021264222701767354
sI84
F-0.0030946506893254427
sI85
F0.0030169465984665016
sI86
F-0.0017918090497723099
sI87
F0.006370995127990296
sI88
F-0.0011225249133839344
sI89
F-0.0006872209532854192
sI90
F0.0031619598823848802
sI91
F0.0003989814683823636
sI92
F-0.002185895195766181
sI93
F0.0013449631461269157
sI94
F-0.00042611704939903407
sI95
F0.00892562492141937
sI96
F0.004241450600649684
sI97
F0.00014085051927217532
sI98
F-0.002429811115672992
sI99
F0.005750859604801508
sI100
F-0.0011055964324353487
sI101
F-0.0027325652199526504
sI102
F0.0009276300692751034
sI103
F-0.00020018871439810086
sI104
F0.00311407895554436
sI105
F0.00257416492619677
sI106
F-0.0021015692606815915
sI107
F-0.0005424624212636758
sI108
F0.006856226715156441
sI109
F-0.006690851129530963
sI110
F-0.003081603801995294
sI111
F-8.044122914237003e-05
sI112
F-0.0007135567079301559
sI113
F-0.002695997368605639
sI114
F0.0024714937686507905
sI115
F0.005893181463207804
sI116
F0.0001813479717316931
sI117
F-0.0018534495436270282
sI118
F-8.511495481633681e-05
sI119
F-0.000159871306461218
sI120
F-0.008368801987479371
sI121
F0.0003226386505855797
sI122
F0.002475190989048321
sI123
F-0.002570231038425518
sI124
F0.00019483462763654068
sI125
F0.0006623891763673674
sI126
F0.0025575006855280465
sI127
F-0.0024197389677967167
ssI11
g8
(tRp22
I64
F0.004092566703563652
sI65
F0.0036050219585521404
sI66
F-0.0008232102984530054
sI67
F0.002289295625622519
sI68
F-0.00025347298942864733
sI69
F0.0024458948409043315
sI70
F6.427339614657137e-05
sI71
F0.0009751376980615127
sI72
F0.0037592679217227777
sI73
F-0.0003147028809834479
sI74
F-0.002132349545807854
sI75
F-0.006207935980606122
sI76
F-0.0038693960964828367
sI77
F-0.0027895462530080815
sI78
F0.0023268235865451154
sI79
F0.0002504336488152804
sI80
F-0.0017244874528189855
sI81
F0.004531530318754117
sI82
F-0.0014344999576257201
sI83
F0.003615108249196021
sI84
F-0.003754247850964807
sI85
F-0.006083392744343208
sI86
F0.0007297836218999141
sI87
F0.005934999319634841
sI88
F0.00044889271777707085
sI89
F-0.0034469286482656323
sI90
F0.003488182500369595
sI91
F-0.0014057718406931506
sI92
F0.0010658418814814199
sI93
F0.0017017584666843522
sI94
F-0.002985455968609722
sI95
F0.0023930089158568273
sI96
F0.006859573306080325
sI97
F-0.002727545363261214
sI98
F-0.008438243080009357
sI99
F0.006676096923966458
sI100
F0.0017703957175837402
sI101
F-0.002237155389155204
sI102
F-0.0009651619977452868
sI103
F0.0040455154728711844
sI104
F-0.0033034015619578844
sI105
F0.0005666766033804774
sI106
F-0.0021373156368357177
sI107
F-0.0018740955693211086
sI108
F0.008280979747434832
sI109
F-0.0034589653057581016
sI110
F-0.003400154026476449
sI111
F-0.003424968404209204
sI112
F0.0020100260079794104
sI113
F-0.0059493757118527675
sI114
F0.0038924632685010023
sI115
F0.0018887760804150498
sI116
F-0.003526867576865667
sI117
F-0.0005573294595656087
sI118
F0.0026135507678677517
sI119
F0.0007536591309228369
sI120
F-0.005947615861138406
sI121
F0.0025651715054414584
sI122
F0.0017586399438391006
sI123
F-0.007928753838238739
sI124
F-0.0007640880274836765
sI125
F0.006381811092718834
sI126
F0.0008335688029170426
sI127
F0.000394073565189912
ssI12
g8
(tRp23
I64
F0.005813437100375881
sI65
F0.0052592007614303765
sI66
F-0.0010018397312106552
sI67
F-0.0007229224353828717
sI68
F-0.0014337727753763166
sI69
F0.0019505690579336116
sI70
F-0.0036382887495034462
sI71
F0.00014279267103318367
sI72
F0.004712943175504358
sI73
F-0.0022525039624235457
sI74
F-0.0016148995893553607
sI75
F-0.0006260177686515225
sI76
F-0.00514434029853377
sI77
F-0.0016910605876290625
sI78
F0.0023367521105642224
sI79
F0.001399128184642199
sI80
F-0.0034103833494340745
sI81
F0.004856037462047024
sI82
F0.0010510487960794699
sI83
F0.005121854908972653
sI84
F-0.0011617878453479918
sI85
F-0.007440594761321783
sI86
F0.0011569894133718012
sI87
F0.006277874121594135
sI88
F0.0019269372289960228
sI89
F-0.004666114493552593
sI90
F0.0017450608318431008
sI91
F-0.003116239934155089
sI92
F-0.002442263380252647
sI93
F0.003187448079940894
sI94
F-0.0028837237397902078
sI95
F0.0010333826646265279
sI96
F0.004687493242954254
sI97
F-0.004483001377155776
sI98
F-0.005568505759366399
sI99
F0.005865431971341626
sI100
F0.0018184946993884095
sI101
F-0.0008511263813202309
sI102
F-0.0036664146030734044
sI103
F0.003967881686080481
sI104
F-0.004059295902157527
sI105
F-0.001420721313947503
sI106
F-0.0011609118273257053
sI107
F-0.00038008230973011966
sI108
F0.007515747205520771
sI109
F-0.0047454419959679665
sI110
F-0.0005855461629301292
sI111
F-0.004444079275523457
sI112
F0.004497062384460579
sI113
F-0.0043138264827029945
sI114
F0.001987487807515441
sI115
F0.0017826200866036613
sI116
F-0.007297780698466756
sI117
F-0.0027037995532767085
sI118
F0.006008265270137303
sI119
F-0.0021916335806205227
sI120
F-0.0017763301427138791
sI121
F-0.0012935670236308156
sI122
F-0.000746127383576774
sI123
F-0.0046575157047847775
sI124
F-0.004340304379505505
sI125
F0.0045280981806424935
sI126
F-0.0033715709534177097
sI127
F0.002532245788077577
ssI13
g8
(tRp24
I64
F0.009158017805164767
sI65
F0.004951006495837904
sI66
F0.0020202182014867486
sI67
F0.0016799347191143686
sI68
F-0.0038466151114737272
sI69
F0.00043629386906601797
sI70
F-0.0019547410994874884
sI71
F0.0011431532220744793
sI72
F0.0021521013551771572
sI73
F-0.0031971519275863793
sI74
F-0.003791929153435377
sI75
F0.002345437517622734
sI76
F-0.001821986385882059
sI77
F-0.0003268085077971469
sI78
F-0.0013890774465190323
sI79
F-0.0005186396500398492
sI80
F-0.0011183100268630458
sI81
F0.0036780041222248087
sI82
F0.00047584385802839984
sI83
F0.002119330740878002
sI84
F0.0025031214032165154
sI85
F-0.0024748359876799134
sI86
F-0.0008068609082262812
sI87
F0.003193909518427886
sI88
F0.0030224411581025457
sI89
F-0.0009885207290420818
sI90
F-0.0013411714875364248
sI91
F-0.0037936803559799064
sI92
F-0.0017896809781337913
sI93
F0.0008724921481289494
sI94
F-0.0009667008259189552
sI95
F0.0010670403232421756
sI96
F0.005490690588303462
sI97
F-0.001379346675377192
sI98
F-0.0015336883360533118
sI99
F0.0034298841100728235
sI100
F-0.0026158553360127925
sI101
F-0.0006044430234258123
sI102
F-0.0067320529623988695
sI103
F0.0012671808157530952
sI104
F-0.004725844769321875
sI105
F-0.00036384926219091456
sI106
F0.0029567021494093285
sI107
F-2.520383335716747e-05
sI108
F0.0038220744616270117
sI109
F-0.0005853139104716383
sI110
F0.003376177664729349
sI111
F-0.004480674888541285
sI112
F0.003222448764410402
sI113
F-0.00024683430085955307
sI114
F0.000657048365697316
sI115
F0.0034377740051426747
sI116
F-0.0020099170254032636
sI117
F-0.006007552111684497
sI118
F0.004966597333997862
sI119
F-0.0018398215690004723
sI120
F0.00248445198090677
sI121
F-0.002861811953646168
sI122
F0.00016167408925022646
sI123
F0.0008502950979792224
sI124
F-0.004882840644075113
sI125
F0.004627627572404916
sI126
F-0.0047050231776901985
sI127
F0.0040356118851103155
ssI14
g8
(tRp25
I64
F0.01066956835377124
sI65
F0.005906192694705173
sI66
F0.0006031044801917354
sI67
F0.0011004011631019534
sI68
F-0.005473277322406118
sI69
F0.0020179687854937
sI70
F-0.00018212438519236434
sI71
F0.0026867343713455317
sI72
F0.002919142258031968
sI73
F-0.0033522046857235857
sI74
F-0.004541832893005354
sI75
F0.005537374264762151
sI76
F-0.0019163041580841063
sI77
F0.0017418356377777039
sI78
F-0.0019167999377416268
sI79
F0.0009766140161247213
sI80
F-0.0012405844652973353
sI81
F0.009559248514768066
sI82
F-0.002110838500382094
sI83
F0.004892526615848474
sI84
F0.002870557740168467
sI85
F0.0005418392070506873
sI86
F-0.0026168004690256723
sI87
F0.003069832824619698
sI88
F0.0034596618168362086
sI89
F0.0014913967011659416
sI90
F0.0009515588030588457
sI91
F-0.0036317908014019177
sI92
F-0.00155558272069473
sI93
F0.00015766425228604979
sI94
F-0.00013317280697484866
sI95
F0.0005483101175937785
sI96
F0.004612618008111203
sI97
F-0.0037343667496010555
sI98
F0.0034455886130598154
sI99
F0.0013455387821030029
sI100
F-0.004958769770918147
sI101
F-0.0005553583187211795
sI102
F-0.009883350803007781
sI103
F0.0013205323315356615
sI104
F-0.00474500829423767
sI105
F-0.0018345776850276978
sI106
F0.005277734564575918
sI107
F-0.002841110692025088
sI108
F0.003385826221768491
sI109
F-0.0010186078419713773
sI110
F0.0028194586696039504
sI111
F-0.002706731488086354
sI112
F0.0012326477688594899
sI113
F0.00181235834984212
sI114
F-4.368620493512089e-05
sI115
F0.0009332190048486407
sI116
F-0.00019667675123790298
sI117
F-0.006746443323703941
sI118
F0.00742597117889829
sI119
F-0.0039570358699444206
sI120
F0.005810567250055335
sI121
F-0.004494421426313569
sI122
F0.0028584112300474554
sI123
F0.0038858281541459313
sI124
F-0.006595242235136277
sI125
F0.0059360139682467315
sI126
F-0.004928252539586525
sI127
F0.0022590671467673396
ssI15
g8
(tRp26
I64
F0.018083395581518606
sI65
F0.008187742666964606
sI66
F0.0015779042913831832
sI67
F-0.0011343129137610039
sI68
F-0.010070346339417335
sI69
F0.0014744085979653593
sI70
F-0.0014327171875973936
sI71
F0.004612264196789345
sI72
F0.0064260622756982105
sI73
F-0.0032377383308994337
sI74
F-0.008458440764746738
sI75
F0.009249173237907022
sI76
F-0.0032060983535101614
sI77
F0.001797932164242267
sI78
F0.0007264604411915364
sI79
F-0.00037786989785966826
sI80
F-0.006984725859312364
sI81
F0.015511775358917517
sI82
F-0.005157545292080592
sI83
F0.005428863131592805
sI84
F0.006967596153480104
sI85
F0.00019938719240925396
sI86
F-0.00498769728147103
sI87
F0.005231419922418482
sI88
F0.006137473545092732
sI89
F0.002735578815246514
sI90
F-0.0006997165012606084
sI91
F-0.004346459810002672
sI92
F-0.008395209932239018
sI93
F0.003829123747787599
sI94
F-0.000669558699837587
sI95
F0.0010616252211337856
sI96
F0.008588557142248151
sI97
F-0.004497220667991455
sI98
F0.013239893965529152
sI99
F0.0032289994324616695
sI100
F-0.007658138904845248
sI101
F-0.0038737540205735638
sI102
F-0.014228882130801538
sI103
F0.0056903553394027345
sI104
F-0.0077480922236238285
sI105
F-0.003034670375861225
sI106
F0.010630515859107409
sI107
F-0.0021497139132538134
sI108
F0.006872692899032389
sI109
F-0.002082569698014974
sI110
F0.002355670723648852
sI111
F-0.008237710328885128
sI112
F0.001134990039300004
sI113
F0.005854856307722876
sI114
F-0.0009592186469215284
sI115
F0.00277646314106163
sI116
F-0.0010867601802871437
sI117
F-0.012730864092089508
sI118
F0.012471080624765265
sI119
F-0.010408809147623274
sI120
F0.007237448123502577
sI121
F-0.007812536859506355
sI122
F0.00038313594305606986
sI123
F0.006323985919751816
sI124
F-0.01256486800102075
sI125
F0.006451629172155766
sI126
F-0.010075921045114735
sI127
F0.0045195625076532185
ssI16
g8
(tRp27
I64
F-0.00400070522133018
sI65
F0.001668156641733658
sI66
F0.00024045053964204214
sI67
F-0.0025546066534471545
sI68
F-0.002766586700717275
sI69
F0.010171212756867732
sI70
F-0.0024360538943763725
sI71
F0.001810315513836142
sI72
F-0.0003920026046272574
sI73
F0.0019792976403606713
sI74
F-0.01399120444012739
sI75
F-0.0014955172565238753
sI76
F0.01045207004322943
sI77
F-0.00526100299094476
sI78
F0.003802862022753312
sI79
F0.0001971705668808036
sI80
F-0.010124694888250485
sI81
F0.0003055770736566831
sI82
F-0.005436109665105233
sI83
F0.0033522936110663105
sI84
F-0.005690464312058926
sI85
F0.010133583226788414
sI86
F-0.0021362826598408835
sI87
F0.0045280495562269475
sI88
F0.0012380085791284718
sI89
F0.008836447371312815
sI90
F0.003718114944019511
sI91
F0.0031151383330170848
sI92
F-0.009838513586761901
sI93
F-0.0008034756738066972
sI94
F-0.00155307969972124
sI95
F0.015823263999225713
sI96
F0.003244052817565329
sI97
F-3.539525168722284e-05
sI98
F0.00410709700905581
sI99
F0.005018792699405137
sI100
F-0.006371964741911339
sI101
F-0.008104392342281396
sI102
F-0.0009538549271226716
sI103
F-0.000575808913185123
sI104
F0.0018619632809007626
sI105
F-0.004581669733797401
sI106
F-0.0025189264086518627
sI107
F-0.001141689295228582
sI108
F0.0075595914020158625
sI109
F-0.0146183399354871
sI110
F-0.00825023690643723
sI111
F0.005304090357837702
sI112
F-0.0053232651310575994
sI113
F0.004735881879350884
sI114
F0.005431314546277367
sI115
F0.009532592736458885
sI116
F0.009069714219841719
sI117
F-0.008586984960688077
sI118
F0.001079897880293386
sI119
F-0.002816690785550769
sI120
F-0.012507974164989926
sI121
F-0.0038429232964946546
sI122
F0.01052051542617598
sI123
F0.005575826976175348
sI124
F-0.001221911980401048
sI125
F0.003070692330187626
sI126
F-0.0030422589714952358
sI127
F-0.004210933756359256
ssI17
g8
(tRp28
I64
F0.0002661672489269206
sI65
F0.0014839825236843353
sI66
F0.001382721549516432
sI67
F-0.0014491334490198664
sI68
F-0.00106142776374223
sI69
F0.005169209025731843
sI70
F-0.003599636632238577
sI71
F0.000658379318189975
sI72
F0.0012100799940974595
sI73
F-0.00017434933357884404
sI74
F-0.00654871380275257
sI75
F-0.001933651870458779
sI76
F0.0020924462057138474
sI77
F-0.003184470915124467
sI78
F0.001994171933965815
sI79
F-7.543026746704595e-05
sI80
F-0.0044867950752658075
sI81
F0.0029418184120507686
sI82
F0.00028450457566700076
sI83
F0.0025012526716086223
sI84
F-0.0030620837066464438
sI85
F0.0038189210721970637
sI86
F-0.0011941391820949761
sI87
F0.000678913874857196
sI88
F-6.487407269265165e-05
sI89
F0.002946027691996894
sI90
F0.0016750807624608594
sI91
F-0.00035581302395340996
sI92
F-0.005280506926761941
sI93
F-0.0033004410185800506
sI94
F-3.780013507245654e-05
sI95
F0.008487026059119992
sI96
F0.0025896275394279487
sI97
F0.001865298656588824
sI98
F0.0015130616206884848
sI99
F0.0025338273707286372
sI100
F-0.0012712302807110394
sI101
F-0.003362714797576574
sI102
F-0.0018239703434407275
sI103
F-0.0022835939454826874
sI104
F0.0010426590651869646
sI105
F-0.001569897992667934
sI106
F-0.0019411339918513197
sI107
F-0.0004792664104381665
sI108
F0.002241763797450464
sI109
F-0.0034041327398265197
sI110
F-0.0033349956953006212
sI111
F-0.0006279873123045238
sI112
F-0.0012219648822745608
sI113
F0.0009586871876885614
sI114
F0.0022667527079248653
sI115
F0.005369690611288525
sI116
F0.00378197719674467
sI117
F-0.005355864784352726
sI118
F-0.0009045204239485075
sI119
F-0.00020229172900180844
sI120
F-0.005382777539562641
sI121
F-0.0020809551173667567
sI122
F0.004245850933802078
sI123
F0.0028786419319170053
sI124
F-0.0007169916414926614
sI125
F0.00187393967678783
sI126
F0.001141768835473499
sI127
F-0.0009878838807706675
ssI18
g8
(tRp29
I64
F0.00010732827515929139
sI65
F0.0012245266379914866
sI66
F0.0003056664882127133
sI67
F-0.002201161112644302
sI68
F0.0021624506380167265
sI69
F0.006979036074345622
sI70
F-0.0020014139147324444
sI71
F0.00029588163603011357
sI72
F-0.002051311547058423
sI73
F0.0006914215986733417
sI74
F-0.003920204013951914
sI75
F-0.0049672033234643975
sI76
F0.0005979867788967975
sI77
F-0.001636713544647686
sI78
F0.0037700861901999463
sI79
F0.0019110020104136417
sI80
F-0.005582366621115505
sI81
F0.0016239100742848004
sI82
F-0.003049390358789343
sI83
F0.001177970623640255
sI84
F-0.003044086247272237
sI85
F0.0020679238283157005
sI86
F-0.0006765588709284224
sI87
F0.00502063922622933
sI88
F-0.0006625655945757013
sI89
F0.0013546297752512581
sI90
F0.002457498779283878
sI91
F0.0031034493874514354
sI92
F-0.005564765788701229
sI93
F-0.002327614467289611
sI94
F-0.0022409291220957094
sI95
F0.008969275897436894
sI96
F0.0021264450707512528
sI97
F-0.001993246504096256
sI98
F-0.004155305361753712
sI99
F0.004545062212205536
sI100
F-0.001584757447166846
sI101
F-0.0023440273006555884
sI102
F0.0007175138745630023
sI103
F-0.0026053252974017763
sI104
F0.0015470983706297084
sI105
F0.00013434769005072437
sI106
F-0.0016096287848149924
sI107
F-0.0011733662767346284
sI108
F0.004921339807738228
sI109
F-0.0036105567424883724
sI110
F-0.0032833179607080587
sI111
F0.005513125225138119
sI112
F-0.0033180240852044365
sI113
F-0.0024620686351758546
sI114
F0.002941079436568269
sI115
F0.006065211757249455
sI116
F0.0010200004045589578
sI117
F-0.004333355747171968
sI118
F0.0009789563563810657
sI119
F0.0009110522911693402
sI120
F-0.0061569511151305985
sI121
F0.0015241059114495172
sI122
F0.004416566662146575
sI123
F-0.005458522692284098
sI124
F0.0021640363563116883
sI125
F0.0014816985566334878
sI126
F0.0007222044799398597
sI127
F-0.0007906841233579297
ssI19
g8
(tRp30
I64
F0.0032440704036192838
sI65
F0.0050206169383279755
sI66
F0.0012124815168890052
sI67
F9.786957875727849e-05
sI68
F0.0007261302123514019
sI69
F0.004569684623391691
sI70
F0.0007935559160294032
sI71
F0.0023432837284419927
sI72
F-0.0015395067873589252
sI73
F-0.0006254840396942411
sI74
F-0.004332085258642865
sI75
F-0.00484000104293017
sI76
F-0.0028373218662858593
sI77
F-0.0018418578768024949
sI78
F0.003452708511309382
sI79
F0.0010253781063698341
sI80
F-0.0023206117098474805
sI81
F0.002649407536764758
sI82
F2.58631518510538e-06
sI83
F0.004287424723532821
sI84
F-0.004394363620822628
sI85
F-0.004739677541218765
sI86
F0.0005613378245995681
sI87
F0.006249192098708362
sI88
F-0.001010439084264347
sI89
F-0.0034702901781010543
sI90
F0.0017950905859636082
sI91
F-0.0007140255384704021
sI92
F-0.004473654656410072
sI93
F-0.0020830336485518582
sI94
F-0.002316851948672801
sI95
F0.0062006117325838425
sI96
F0.004883416813313381
sI97
F-0.004866981897627273
sI98
F-0.006458663894854448
sI99
F0.005932432448199686
sI100
F0.0030242390265841934
sI101
F-0.0027787845987464906
sI102
F0.0022100031538504223
sI103
F-4.505723857711576e-06
sI104
F-0.002618384085213871
sI105
F0.0027357272647660527
sI106
F-0.005447364319966823
sI107
F0.00037340184158145967
sI108
F0.004665953652316052
sI109
F-0.0024028916385195015
sI110
F-0.0033577527822311317
sI111
F-0.0009610696747188829
sI112
F-0.0010424466367095415
sI113
F-0.002783517839694267
sI114
F0.0037159436299091216
sI115
F0.006452790509927651
sI116
F-0.002919456188555212
sI117
F-0.003350871767908351
sI118
F0.0011185774381146808
sI119
F-0.0018359965951708485
sI120
F-0.00348605532036483
sI121
F0.0008800935784138272
sI122
F0.00014637643945407088
sI123
F-0.009500653980605006
sI124
F-0.0010053409389840552
sI125
F0.0030096672559892933
sI126
F0.0013406180695878082
sI127
F0.00012722583913076017
ssI20
g8
(tRp31
I64
F0.008733797057984471
sI65
F0.005051127930396262
sI66
F0.0008290178379612494
sI67
F0.0003461913160537602
sI68
F-0.0005218927046019572
sI69
F0.00262564535327172
sI70
F-0.0006437389201085992
sI71
F0.0020332567116548867
sI72
F-0.0006401750434650353
sI73
F-0.0013014557088616289
sI74
F-0.004426703807746194
sI75
F-0.0009639968271881004
sI76
F-0.004316339658299908
sI77
F0.001270383589785955
sI78
F0.0015764657090312202
sI79
F-0.00012199806410410619
sI80
F-0.003974684342268182
sI81
F0.007158168575244595
sI82
F-0.0018998547997515992
sI83
F0.003073227830606953
sI84
F-0.001238312769505537
sI85
F-0.00793520778925518
sI86
F-0.001342599243909437
sI87
F0.00652420167433275
sI88
F-0.00035517711572765866
sI89
F-0.005594069141675146
sI90
F0.002674399430002493
sI91
F-0.0034063807565286454
sI92
F-0.006780188075767246
sI93
F3.4174175496187666e-05
sI94
F-0.003478753862428607
sI95
F0.0031856160182711477
sI96
F0.0020886005454014527
sI97
F-0.005909815543157071
sI98
F-0.007672178874553051
sI99
F0.004306872041619456
sI100
F0.0031249659710671784
sI101
F-0.0029626017286843017
sI102
F-0.0005078902354615798
sI103
F-0.0005377381890244705
sI104
F-0.004933337602533474
sI105
F0.0010056307125794943
sI106
F-0.0008702985274621455
sI107
F0.0014459314253027192
sI108
F0.00580437727360883
sI109
F-0.0015147217113431778
sI110
F0.0006666692735523674
sI111
F-0.005474831651435882
sI112
F0.00015967064001602119
sI113
F-0.003936195597656954
sI114
F0.0026734834525954303
sI115
F0.0051238191780319815
sI116
F-0.006384462615328771
sI117
F-0.005029602780940051
sI118
F0.005537316912158643
sI119
F-0.005865573206559089
sI120
F-0.0026728064672891893
sI121
F-0.0010554448075372786
sI122
F0.00017645641829995166
sI123
F-0.006575869634734117
sI124
F-0.002131610157625656
sI125
F0.005411857564304403
sI126
F-0.0008367242644353207
sI127
F0.0026552868351483383
ssI21
g8
(tRp32
I64
F0.013194849200756599
sI65
F0.006481481957400178
sI66
F0.0010555955634313236
sI67
F-0.001924463446485804
sI68
F-0.004780699417226365
sI69
F0.002373050717077788
sI70
F-0.0004629140055311281
sI71
F0.002578048221264302
sI72
F-0.00016234425487860688
sI73
F-0.0030209118812123477
sI74
F-0.004418953758746601
sI75
F0.0044204042352683215
sI76
F-0.0036212734891756648
sI77
F0.0005195517911600398
sI78
F-0.0010469364676087558
sI79
F-0.0007701286984374016
sI80
F-0.004277326005032497
sI81
F0.006342585326054362
sI82
F-0.0004778991858312601
sI83
F0.0029107916115693926
sI84
F0.004470403146778229
sI85
F-0.0029935545523383585
sI86
F-0.001665538485594894
sI87
F0.002611111668660357
sI88
F0.002203489027500967
sI89
F-0.0005597232968607062
sI90
F-0.0011271332829053352
sI91
F-0.0010727411834068495
sI92
F-0.008396331365138471
sI93
F-0.0007071420280040274
sI94
F0.0011501756723733664
sI95
F0.0051840343956852455
sI96
F0.005501732269771805
sI97
F-0.0030452448502659678
sI98
F-0.001606292158625529
sI99
F0.00384072209991063
sI100
F-0.0026033191855634637
sI101
F-0.00467728307337264
sI102
F-0.004020684629219849
sI103
F-7.690459535150787e-05
sI104
F-0.004162455763165976
sI105
F-0.002276435177634906
sI106
F0.002889101411975866
sI107
F-0.0009684336157601975
sI108
F0.004484030145831757
sI109
F-0.0014901094232578206
sI110
F0.002708115827258135
sI111
F-0.004713099329313001
sI112
F-0.0010229738017233346
sI113
F-0.0009416115512216379
sI114
F0.002052930971690458
sI115
F0.0034949988480348047
sI116
F-0.00397802226931538
sI117
F-0.010309020019402823
sI118
F0.005881742079411061
sI119
F-0.006083225809877104
sI120
F0.004994821424714171
sI121
F-0.004571542254573631
sI122
F0.00026685952983159655
sI123
F0.0005565036791543673
sI124
F-0.0043365619159446075
sI125
F0.004942517230665485
sI126
F-0.0022884669275323524
sI127
F0.004382892274430379
ssI22
g8
(tRp33
I64
F0.006378553364699213
sI65
F0.0032482904848758543
sI66
F-0.0014977127406414173
sI67
F-0.00013156328204367491
sI68
F-0.0035749319755775935
sI69
F0.0007167976632650147
sI70
F-0.00046147239972108657
sI71
F0.0016678960057452754
sI72
F-0.0014412430231159818
sI73
F-0.0015601814983449785
sI74
F-0.00023771493023056115
sI75
F0.0009310768632043085
sI76
F0.0005259641795279888
sI77
F0.0009263312007965405
sI78
F-0.001279886442980281
sI79
F0.0002772912170779559
sI80
F-0.0028514548374733036
sI81
F0.005630176276451253
sI82
F-0.0015109922447442046
sI83
F0.004655924340983867
sI84
F0.003254088871527178
sI85
F-0.0013642395798998672
sI86
F-0.0011638094322230438
sI87
F0.0009857918367668045
sI88
F0.0025130920494344546
sI89
F0.002901829068521859
sI90
F-0.0029516979824262615
sI91
F-0.001696268702405604
sI92
F-0.0061060627002753306
sI93
F-0.0020276555874912173
sI94
F-0.000978533074801956
sI95
F8.8374949884153e-05
sI96
F0.002997782320520029
sI97
F-0.002204871430294853
sI98
F0.0019004907964827171
sI99
F0.0018999036728530678
sI100
F-0.0033784862748388153
sI101
F-0.002484759497017173
sI102
F-0.0041299966255365856
sI103
F-0.0017271189194545263
sI104
F-0.0006502927163975191
sI105
F-0.002887782418053102
sI106
F0.0037991075128191187
sI107
F-0.0009230071685840014
sI108
F0.00284169980846429
sI109
F0.0013313561117654232
sI110
F0.0023431540535426183
sI111
F-0.002861971746752814
sI112
F-0.0003915408499495793
sI113
F3.444163267285968e-05
sI114
F0.00019021270337803693
sI115
F-0.0004197043223743663
sI116
F0.000824251679710626
sI117
F-0.006092330744113153
sI118
F0.003759670184826223
sI119
F-0.005211317370953235
sI120
F0.003255084002591902
sI121
F-0.0034608593898190665
sI122
F-0.0003305340336645662
sI123
F0.0010639799843498515
sI124
F-0.004878379872344056
sI125
F0.003407706710989671
sI126
F-0.0036956978493657457
sI127
F0.0005232627001692105
ssI23
g8
(tRp34
I64
F0.014349998573394003
sI65
F0.0058433607219351485
sI66
F0.0025669541951162675
sI67
F-0.0037905534005641755
sI68
F-0.00912911139921402
sI69
F0.002280958171584198
sI70
F-0.0008496583999549001
sI71
F0.003580853837458318
sI72
F0.0007622697718910149
sI73
F-0.003358562087433096
sI74
F-0.007982710850243992
sI75
F0.009923379014846944
sI76
F-0.003638191544805408
sI77
F0.0013359976540405715
sI78
F-0.002811626298987692
sI79
F-0.0011018254116938724
sI80
F-0.007795087001258681
sI81
F0.012955322540339636
sI82
F-0.003766465412580231
sI83
F0.0042495735331833685
sI84
F0.006383232287756041
sI85
F-0.0012196870299869896
sI86
F-0.005439552281536402
sI87
F0.0027380162875249264
sI88
F0.004635801153390669
sI89
F0.0014576109087187476
sI90
F-0.003142500985137399
sI91
F-0.005806680285965702
sI92
F-0.014028452572468942
sI93
F-0.0028440931927819317
sI94
F0.0012800362115435765
sI95
F0.0016062501897166155
sI96
F0.006950935360519077
sI97
F-0.004250502883849062
sI98
F0.010403618204240019
sI99
F0.0017470277540337826
sI100
F-0.007076406812594925
sI101
F-0.007603903521523318
sI102
F-0.012785572520318946
sI103
F-0.0009261593649314275
sI104
F-0.00456731132062689
sI105
F-0.0031178759078858533
sI106
F0.007716131464829738
sI107
F-0.0028948640047311955
sI108
F0.004796161784308076
sI109
F-0.0013118854398909037
sI110
F-0.0007553835002413165
sI111
F-0.00705854120209117
sI112
F-0.0015923185268708591
sI113
F0.007060243566357002
sI114
F0.0005326243616723182
sI115
F0.0008141477567334608
sI116
F-0.00013183916782443718
sI117
F-0.015106694616225436
sI118
F0.0071839538603945974
sI119
F-0.01007773701298483
sI120
F0.008258643974041411
sI121
F-0.004605179628581163
sI122
F-0.0010249768424755426
sI123
F0.005581826237873397
sI124
F-0.00990740101423287
sI125
F0.0035240783217660642
sI126
F-0.006925542267238625
sI127
F0.004767663485470966
ssI24
g8
(tRp35
I64
F-0.0070746111244444345
sI65
F-0.001220057840614862
sI66
F-0.0012721723353975218
sI67
F-0.004695112325970663
sI68
F0.0008422623879301375
sI69
F0.0077740604187195765
sI70
F-0.002407681716034592
sI71
F-0.0019434728723996615
sI72
F-0.0055726830323497584
sI73
F0.00297094248957559
sI74
F-0.011398218173641053
sI75
F-0.004496639813060157
sI76
F0.009025012209462693
sI77
F-0.00379297101321544
sI78
F0.00023235052413531846
sI79
F-7.566604731994728e-05
sI80
F-0.010534103705072443
sI81
F-0.003322609901650513
sI82
F-0.004167832184021006
sI83
F0.001217439248760337
sI84
F-0.004365447996647376
sI85
F0.013720169820724975
sI86
F-0.0007375550863260278
sI87
F0.00015393741373039252
sI88
F-0.000495112284406044
sI89
F0.008311833426966059
sI90
F-0.0008430979133141056
sI91
F0.004383118598090788
sI92
F-0.015645225910900416
sI93
F-0.004544434864174329
sI94
F-0.001603728702617064
sI95
F0.015396298161300993
sI96
F-0.00283548296220076
sI97
F0.003255125034485979
sI98
F0.0021371268890040085
sI99
F0.0019331979445246458
sI100
F-0.0032332908951554543
sI101
F-0.010622186357806042
sI102
F0.0026022762944068697
sI103
F-0.00431664367166061
sI104
F0.003984647337056754
sI105
F-0.002277960596617471
sI106
F-0.005566932606767843
sI107
F-0.001978011938998006
sI108
F0.002941825852417823
sI109
F-0.009523605811788462
sI110
F-0.007217844761668014
sI111
F0.00595907152814534
sI112
F-0.008569633070915357
sI113
F0.005226420994919469
sI114
F0.0030834659507005873
sI115
F0.008673236142341167
sI116
F0.011242037212283711
sI117
F-0.011915456003901086
sI118
F-0.0011410994926669877
sI119
F0.0008972256834781856
sI120
F-0.010621580917574354
sI121
F-0.002278363517603451
sI122
F0.00842065756186974
sI123
F0.008035933575341459
sI124
F0.00276128370220722
sI125
F-0.0039491176803250596
sI126
F-0.00018248634139762684
sI127
F-0.004782069333167177
ssI25
g8
(tRp36
I64
F-0.003306710426458974
sI65
F-0.0034728063153057417
sI66
F0.0008946242970034185
sI67
F-0.0009176223391457681
sI68
F0.0002514628118813259
sI69
F0.005723323628613859
sI70
F0.0008629392612908704
sI71
F-0.0004763495533861599
sI72
F-0.005274384328902059
sI73
F0.0017721703963119112
sI74
F-0.004535981236516817
sI75
F-0.0012205343627698984
sI76
F0.0038612433221737494
sI77
F-0.0014219679233275322
sI78
F0.00013959793547826965
sI79
F-0.001708670325122883
sI80
F-0.004704682977122783
sI81
F-0.0019147740415710818
sI82
F-0.0003521433621934252
sI83
F-0.0013567394225961478
sI84
F-0.001442311820320514
sI85
F0.00477144726884805
sI86
F0.0007027802642929638
sI87
F-0.0017072881954533505
sI88
F-0.00014079466324120045
sI89
F0.0013722200627879029
sI90
F-0.00031931998308197876
sI91
F0.0037342882697557196
sI92
F-0.008124061432087158
sI93
F-0.005475552347748037
sI94
F-0.0014363823462401704
sI95
F0.005235577079117454
sI96
F-0.0013348616846151787
sI97
F0.0022809234848957844
sI98
F0.0011746274852815883
sI99
F0.0007150507782784179
sI100
F-0.001711844829639286
sI101
F-0.006528109618991445
sI102
F0.0032056095984990328
sI103
F-0.0032625352537204227
sI104
F0.004182635996782692
sI105
F0.0004066581436867586
sI106
F-0.002183218248297378
sI107
F-0.0028646359334475523
sI108
F0.0010124355304032954
sI109
F-0.0023716375746299853
sI110
F-0.003147576014411445
sI111
F0.0056612078388199975
sI112
F-0.003945218638066541
sI113
F0.0014878685257334054
sI114
F0.003277424319394648
sI115
F0.001839616502421917
sI116
F0.003350050290348221
sI117
F-0.0072018485978370675
sI118
F-0.0029452673207184905
sI119
F0.0009154250666485198
sI120
F-0.0025307423968764435
sI121
F-0.0002496992169920669
sI122
F0.003172924115505436
sI123
F0.002087735689323226
sI124
F0.001961406856673846
sI125
F-0.002358790488104244
sI126
F0.0010219274537378992
sI127
F0.0012379051384884918
ssI26
g8
(tRp37
I64
F-0.002941355728253836
sI65
F0.00032015650146908424
sI66
F0.0013239901902851476
sI67
F-0.0029962213412844108
sI68
F0.002754978044941418
sI69
F0.004909970456338177
sI70
F-0.0009958034241433868
sI71
F-0.00017872591350289187
sI72
F-0.005537651855009856
sI73
F0.0030453275996284593
sI74
F-0.003570162484036411
sI75
F-0.003229371721249005
sI76
F-0.001130172703909959
sI77
F-0.0009827695279649882
sI78
F0.00224818245537982
sI79
F-0.0001988779052380499
sI80
F-0.003661679856457384
sI81
F-0.00027059138064083486
sI82
F-0.0019262182906611693
sI83
F-0.0023585983459647104
sI84
F-0.00031453674341183353
sI85
F-0.0012611841814463255
sI86
F2.397174267429703e-05
sI87
F0.0013568337215893913
sI88
F-0.0010293732412744916
sI89
F-7.660179423048373e-05
sI90
F0.000739783257031312
sI91
F0.0028330709250525467
sI92
F-0.009288562762250522
sI93
F-0.003632484372358312
sI94
F-0.003616693733909165
sI95
F0.006947092890633468
sI96
F0.0010344538160890998
sI97
F0.0015855709234279531
sI98
F-0.005173005586918526
sI99
F0.0022704906504353883
sI100
F0.002443301035007327
sI101
F-0.006147875650778365
sI102
F0.0033953378076135767
sI103
F-0.0033996909929920028
sI104
F0.0007001174142082263
sI105
F0.001827352202028891
sI106
F-0.002025107626816702
sI107
F-0.0005001194928850638
sI108
F0.003391437338387399
sI109
F-0.0036289144509552003
sI110
F-0.0028031794336528717
sI111
F0.002754510067160494
sI112
F-0.004492376367443771
sI113
F-0.0022813983722865315
sI114
F0.003020093331682134
sI115
F0.0036613571676171143
sI116
F0.0005230906284052879
sI117
F-0.006225719520867278
sI118
F-0.0007789132401828171
sI119
F0.0013053225868577133
sI120
F-0.0030328389581102577
sI121
F0.0010995837104013102
sI122
F0.001741503412480023
sI123
F-0.004313805525047873
sI124
F0.0012071523393393257
sI125
F-0.0015855010758941742
sI126
F0.002105773994490656
sI127
F-0.0015542121650851748
ssI27
g8
(tRp38
I64
F-0.0022800796788721447
sI65
F-0.0005348117282278245
sI66
F0.0004259968137971373
sI67
F-0.003717650296753773
sI68
F0.00452412774320248
sI69
F0.0017940496695890355
sI70
F0.0006472665994005731
sI71
F-0.0017324751511395519
sI72
F-0.005246355937060874
sI73
F-0.0010331200753239088
sI74
F-0.0038154643626784426
sI75
F-0.006935987934220544
sI76
F-0.003268377711363008
sI77
F0.0002829691267467419
sI78
F0.0032220082308395234
sI79
F0.0014380976735750488
sI80
F-0.006002577416241948
sI81
F-0.0014463038029102976
sI82
F0.00012069363825814792
sI83
F0.003627072826088686
sI84
F-0.004257703620530381
sI85
F-0.005718248341443051
sI86
F0.004280270266200748
sI87
F0.005783883418694057
sI88
F-0.002768578731325522
sI89
F-0.003394900110992568
sI90
F0.0035685587312558834
sI91
F0.0016484391329352
sI92
F-0.009359255652985196
sI93
F-0.005281716808001141
sI94
F-0.00252665183757618
sI95
F0.005522821857808998
sI96
F0.0028725746564863216
sI97
F-0.004697442599684502
sI98
F-0.012453033765814624
sI99
F0.004589501926419534
sI100
F0.004612608873691969
sI101
F-0.0041724749991810415
sI102
F0.006494073712382974
sI103
F-0.000555552500558746
sI104
F-0.000745966194271897
sI105
F0.0018815252187399617
sI106
F-0.006931163699380673
sI107
F-0.00012410122430985297
sI108
F0.0020957949756077654
sI109
F-0.004386201869934669
sI110
F-0.003906326477332697
sI111
F-0.00035856047902323396
sI112
F-0.002085153768124109
sI113
F-0.005417745176657171
sI114
F0.00258739522792307
sI115
F0.005324211212855115
sI116
F-0.004959662150509251
sI117
F-0.005291493066428207
sI118
F-0.0004819444962499267
sI119
F0.0007623413927290955
sI120
F-0.008840205792220435
sI121
F0.0023853005208375067
sI122
F-6.037572223517388e-05
sI123
F-0.010696451098733852
sI124
F0.002924487003637044
sI125
F0.0021071403653717966
sI126
F0.004363373307579478
sI127
F-0.001984351622979853
ssI28
g8
(tRp39
I64
F0.00735515797619715
sI65
F0.0005305937613848743
sI66
F0.0017703896092460527
sI67
F-0.001521146719438349
sI68
F0.0002060826256340535
sI69
F0.002051342014527863
sI70
F0.0002474947633843126
sI71
F0.0029367340498062827
sI72
F-0.00739814759964095
sI73
F-0.00271707207875807
sI74
F-0.0034352995766644408
sI75
F0.0008787112476983529
sI76
F-0.0036723340959290115
sI77
F0.0047770368454402015
sI78
F0.000440355752453924
sI79
F-9.573407104593105e-05
sI80
F-0.003925474408292274
sI81
F0.0033919378305340155
sI82
F0.0026564383412456534
sI83
F-1.488510518154456e-05
sI84
F-0.000760110637136355
sI85
F-0.009083424340367631
sI86
F-0.0005545247206011087
sI87
F0.0008486004884048872
sI88
F0.00022015823853629987
sI89
F-0.007271781595878271
sI90
F-7.420985672356532e-05
sI91
F-0.0032612690543504554
sI92
F-0.011482890701401651
sI93
F-0.005503952613079208
sI94
F-0.002161371618815739
sI95
F-0.00013964949315904557
sI96
F-0.0015094318267774136
sI97
F-0.00523507070092349
sI98
F-0.0070521545487007556
sI99
F0.0006450358607052336
sI100
F0.001786028556917777
sI101
F-0.0029734600111943274
sI102
F0.0020334386594260487
sI103
F-0.002535045223225009
sI104
F-0.00407504073006787
sI105
F-0.0003350344629167732
sI106
F0.00010757067065468255
sI107
F0.0013237889132701388
sI108
F-0.0020368615050081434
sI109
F-0.0011082914642208896
sI110
F0.0015298296340404193
sI111
F-0.004936871361971176
sI112
F0.0009454638003549091
sI113
F-0.003830626322476308
sI114
F-0.0014906955514151588
sI115
F0.0018645832535559529
sI116
F-0.007396772049215913
sI117
F-0.008776076461686983
sI118
F2.5536836813941194e-05
sI119
F-0.004783716279105255
sI120
F0.0019464189531493835
sI121
F0.0006955586975144979
sI122
F-0.0044424642232415434
sI123
F-0.004259347444077617
sI124
F0.0006411441864543885
sI125
F0.00029383435503941413
sI126
F0.0010183858201624995
sI127
F0.004429017841529474
ssI29
g8
(tRp40
I64
F0.0057208918101360525
sI65
F0.0005765013513191918
sI66
F0.0024999136462237454
sI67
F-0.0018059322350949018
sI68
F-0.0013766624511454269
sI69
F-0.0010291807553335119
sI70
F-0.00023332747441567333
sI71
F0.0016153199635815792
sI72
F-0.007547461289057804
sI73
F-0.001756009225203547
sI74
F-0.0002605576109806591
sI75
F0.0023338459514751424
sI76
F-0.002140691256348713
sI77
F0.004963398614054802
sI78
F-0.0008369588738356109
sI79
F-0.0001680665214303999
sI80
F-0.0027358864533231875
sI81
F0.001982894176859656
sI82
F0.003929113383643089
sI83
F-0.0018386360876136959
sI84
F0.004164899625842427
sI85
F-0.0040185252755704295
sI86
F0.0015766166743352325
sI87
F-0.003077392559666032
sI88
F0.001203043552983326
sI89
F-0.003653565689087202
sI90
F-0.00409665787566412
sI91
F-0.002380787289431144
sI92
F-0.009447983912408527
sI93
F-0.00671824635297196
sI94
F0.0029964609343424136
sI95
F-0.0013888243417241766
sI96
F-0.0014441086421790315
sI97
F0.00011588727546814742
sI98
F-0.0017253748214177867
sI99
F-0.003895863325435885
sI100
F0.0006366485329122525
sI101
F-0.003903240384320667
sI102
F0.0002791227507583947
sI103
F-0.00501648210221296
sI104
F-0.0013614806792308473
sI105
F-0.00039799090568196056
sI106
F0.0033119307127746503
sI107
F-0.0009615981933116775
sI108
F-0.004593805846167515
sI109
F0.0015851596580896503
sI110
F0.0014513676098331931
sI111
F-0.003669721112106854
sI112
F-0.0007604538890931857
sI113
F-0.00201271215131449
sI114
F-0.0008150683092832925
sI115
F-0.0012875594003776507
sI116
F-0.003215052098891503
sI117
F-0.008684743022199109
sI118
F0.002783838422376047
sI119
F-0.0030494104230865005
sI120
F0.005961223860869027
sI121
F0.0013235706322920952
sI122
F-0.0021655432271629796
sI123
F0.0002317458024297925
sI124
F-0.00025603303896052715
sI125
F-0.0008505460922955316
sI126
F0.00044140154862191587
sI127
F0.003510494022697966
ssI30
g8
(tRp41
I64
F0.004852047969511089
sI65
F0.0036153657939378228
sI66
F0.001528573506225369
sI67
F-0.0033451897932355304
sI68
F-0.0040930515310559955
sI69
F-0.002664546021740775
sI70
F0.0007765814835605034
sI71
F0.002087007996834727
sI72
F-0.0029927672232021277
sI73
F-0.0020102863555621605
sI74
F-9.407821294079767e-05
sI75
F0.007161069406156233
sI76
F-0.0006544824788346741
sI77
F0.004706672172112669
sI78
F-0.002815311992731366
sI79
F0.0008647768426317199
sI80
F-0.0033694893841025825
sI81
F0.004000818847074031
sI82
F0.0010392828155300084
sI83
F0.0006610023587933089
sI84
F0.0035477195825272265
sI85
F-0.0013142252019470214
sI86
F-0.0006603127309338959
sI87
F0.0005487753216352137
sI88
F0.0028161411124822465
sI89
F-0.00023064256968363894
sI90
F-0.003380644481977246
sI91
F-0.00275048988355859
sI92
F-0.007932760069056998
sI93
F-0.004091498936369005
sI94
F0.0002701307138229439
sI95
F-0.003023213075075423
sI96
F-0.00022879496204004275
sI97
F0.0003876202430685509
sI98
F0.004513603064867922
sI99
F-0.001941467572377513
sI100
F-0.003948356157423966
sI101
F-0.0049948787144265825
sI102
F-0.0040473188544805205
sI103
F-0.0034881953801567866
sI104
F-0.0020871162155966043
sI105
F-0.00045183657538093875
sI106
F0.004056337913177206
sI107
F0.00020756947404044232
sI108
F-0.0009713177638271066
sI109
F0.00336856572418956
sI110
F0.003657365924888403
sI111
F-0.0028162789102972995
sI112
F0.0004362827332559763
sI113
F0.0005246641325778536
sI114
F-0.0004925984070812123
sI115
F-0.002471995306387331
sI116
F-0.000725164112884034
sI117
F-0.008667203899346351
sI118
F0.0038821376371867273
sI119
F-0.0024408738698606805
sI120
F0.006004679967065117
sI121
F-0.0019131069684844948
sI122
F-0.0013053914408977746
sI123
F0.0014559593447465468
sI124
F-0.0034927381824635755
sI125
F0.0016893886115664127
sI126
F-0.002686368327221986
sI127
F0.0011803618567529023
ssI31
g8
(tRp42
I64
F0.013293754810517444
sI65
F0.004220031880827438
sI66
F0.002361344199572864
sI67
F-0.002369197190999656
sI68
F-0.004098669662907993
sI69
F-0.0020155433138267695
sI70
F0.002360245724224449
sI71
F0.0017719775710087734
sI72
F-0.004346327452951159
sI73
F-0.0021898734433583498
sI74
F-0.0014745658371760663
sI75
F0.007316074224392566
sI76
F-0.0019329310350738155
sI77
F0.004017387397673132
sI78
F-0.00128190986954927
sI79
F-0.0011408490317706904
sI80
F-0.004542191195899103
sI81
F0.006110072982731981
sI82
F0.001146547372984291
sI83
F0.0010590451535637687
sI84
F0.007467507099214462
sI85
F-0.0009505718791393446
sI86
F-0.0015635129756912374
sI87
F-0.0012912509204549949
sI88
F0.004581549345688418
sI89
F0.0013558542869824784
sI90
F-0.004421296264527149
sI91
F-0.004279368146166743
sI92
F-0.010846403880630288
sI93
F-0.003441052757887492
sI94
F0.003955659280013843
sI95
F-0.006172760364008797
sI96
F0.0011049878930171884
sI97
F-0.0009920255503250187
sI98
F0.012487640832102947
sI99
F-0.00228023778479046
sI100
F-0.004976877567616979
sI101
F-0.005212968324131709
sI102
F-0.00911629054053842
sI103
F-0.0026522577398887318
sI104
F-0.0008415535127601842
sI105
F-0.0002367159508096034
sI106
F0.008217547607009537
sI107
F-0.0004641954067764207
sI108
F-0.002874256661639832
sI109
F0.0015603321178918484
sI110
F0.0037602414743565372
sI111
F-0.0035111130716071596
sI112
F-0.00409238535741152
sI113
F0.004644864736212398
sI114
F-0.0005020867143192049
sI115
F-0.003423809756475463
sI116
F-0.002146688802229798
sI117
F-0.009327692743735133
sI118
F0.005722472746191487
sI119
F-0.00713371952880275
sI120
F0.011705014530005534
sI121
F-0.00225044707202153
sI122
F-0.002307472009578118
sI123
F0.005152843074772533
sI124
F-0.006712273228597053
sI125
F0.00022967819037339295
sI126
F-0.005323281074131362
sI127
F0.001645388061712881
ssI32
g8
(tRp43
I64
F-0.009756064155921338
sI65
F-0.00356487162776466
sI66
F1.2486602752924289e-05
sI67
F-0.002721889700944391
sI68
F0.004775832974052132
sI69
F0.0032713618002739166
sI70
F-0.0006780477409747978
sI71
F-0.0030321933337654106
sI72
F-0.006494400696865904
sI73
F0.005328282771823476
sI74
F-0.005056121028414139
sI75
F-0.0025276770755437374
sI76
F0.007926301481829304
sI77
F-0.0013318406059172573
sI78
F-0.0004798699140335776
sI79
F9.577066909855613e-05
sI80
F-0.0027126002438719863
sI81
F-0.005091041382235963
sI82
F-0.002217728721488946
sI83
F-0.005651491551785834
sI84
F-0.0010739560121150763
sI85
F0.009720436886103426
sI86
F0.0005123417460916413
sI87
F-0.0025189575360483
sI88
F-0.0017065328395363343
sI89
F0.007033730517148023
sI90
F-0.002029276003289529
sI91
F0.005927209129717325
sI92
F-0.005294740507722058
sI93
F-0.004892816087357214
sI94
F-0.0010768818839665805
sI95
F0.009111046254185092
sI96
F-0.004626914879865151
sI97
F0.005691957416028139
sI98
F0.0034461674717842826
sI99
F-0.0024108575340751827
sI100
F-0.00038744815929500956
sI101
F-0.007749455002819066
sI102
F0.004174034835759335
sI103
F-0.004814258177842838
sI104
F0.006227429749968518
sI105
F-3.974078612713173e-05
sI106
F-0.005409230662639918
sI107
F-0.001208520768298902
sI108
F-0.004164871971527555
sI109
F-0.001962980131667388
sI110
F-0.0038981287259495082
sI111
F0.006187158655372127
sI112
F-0.006501892758800749
sI113
F0.006968153204610362
sI114
F-0.00031524671403009485
sI115
F0.002454614312319193
sI116
F0.009817577788063744
sI117
F-0.0021718617838245194
sI118
F-0.005744400924643844
sI119
F0.005739779094078118
sI120
F-0.007464393632964437
sI121
F0.0014945811357543698
sI122
F0.007396982934393443
sI123
F0.0068941059569823165
sI124
F0.004353614730583573
sI125
F-0.0069542367586858615
sI126
F0.0027779135035319803
sI127
F-0.0019289348291531305
ssI33
g8
(tRp44
I64
F-0.003084673533482016
sI65
F-0.002283175141079386
sI66
F-0.0015773627493399862
sI67
F-0.002827283145301068
sI68
F0.0036727767793349585
sI69
F0.0037815183313456447
sI70
F-9.648491316384073e-05
sI71
F0.001387732274118897
sI72
F-0.005202190475599072
sI73
F0.0028008047950063555
sI74
F-0.000999948040432352
sI75
F-0.001015560830829848
sI76
F0.002696171090579676
sI77
F0.003380934778369927
sI78
F-0.0007102751129620729
sI79
F-0.002862289420356005
sI80
F7.875536210048425e-05
sI81
F-0.0045427913336571445
sI82
F-0.0004154484540947318
sI83
F-0.0029370628393866173
sI84
F0.0004930990710598249
sI85
F0.0037796899973759754
sI86
F0.0006124744765729657
sI87
F-0.0029079883048395727
sI88
F-0.0007425657619962852
sI89
F0.003844811410656601
sI90
F-0.0013533305219011083
sI91
F0.003132285852908835
sI92
F-0.004425906101260622
sI93
F-0.0060329794412937905
sI94
F-0.0002521953502645853
sI95
F0.005054886374441485
sI96
F-0.005085054994239395
sI97
F0.003797991223465215
sI98
F0.002675997944025055
sI99
F-0.001961694250065254
sI100
F0.00028469591133087823
sI101
F-0.0061424134856082006
sI102
F0.006096485024748082
sI103
F-0.0037248582196737724
sI104
F0.001290463255494384
sI105
F-0.00140633383311504
sI106
F-0.0008382115768017826
sI107
F-0.0012979116154582927
sI108
F-0.0037746986028263335
sI109
F0.00058438072513627
sI110
F-0.0019085633466949573
sI111
F0.0043940283335800355
sI112
F-0.004132884831861891
sI113
F0.0016445489558060584
sI114
F0.0016092327861375925
sI115
F0.0027210617584420343
sI116
F0.0023408580823202282
sI117
F-0.0007667052392676949
sI118
F-0.0022547257003217376
sI119
F0.0031076824153911456
sI120
F-0.0025788159214386514
sI121
F0.0015338464176385463
sI122
F0.004058077798430067
sI123
F0.002024428420413199
sI124
F0.0023418960113098333
sI125
F-0.004777534497529771
sI126
F0.002454300656068709
sI127
F-0.002652243444451783
ssI34
g8
(tRp45
I64
F-0.0035969877143715704
sI65
F-0.0022328075649453876
sI66
F0.0006113202999867651
sI67
F-0.0036428449882709843
sI68
F0.005180669133625793
sI69
F0.005208042925807346
sI70
F-0.0008799662066909923
sI71
F0.00013782263718407862
sI72
F-0.004905969020676725
sI73
F0.0026866386479610675
sI74
F-0.0019217331977846844
sI75
F-0.004275432750034466
sI76
F0.00378004333768797
sI77
F0.001622435700940777
sI78
F-9.60417359028614e-05
sI79
F0.000887486754310919
sI80
F-0.002462484416765161
sI81
F-0.004706369745204759
sI82
F0.0015825882826195946
sI83
F-0.0016771405256227703
sI84
F-0.0008209779351200521
sI85
F0.001687063186781456
sI86
F0.00091210365407281
sI87
F0.0009861891442163448
sI88
F-0.0024866808711825014
sI89
F0.0012173807956914842
sI90
F-0.0007342238181563929
sI91
F0.004051891935910795
sI92
F-0.00838376596113549
sI93
F-0.0034380880473475865
sI94
F0.0014945259857405038
sI95
F0.006303466277058806
sI96
F-0.004170775957461079
sI97
F3.203365711556806e-05
sI98
F-0.00481631329660053
sI99
F0.0009130758587694387
sI100
F0.002286053550774286
sI101
F-0.008054403058022274
sI102
F0.006582434011445577
sI103
F-0.005466585719430923
sI104
F0.0019932327912695856
sI105
F0.0011257711156224819
sI106
F-0.002963150488673264
sI107
F-0.0008976026028399405
sI108
F-0.0018610934915191549
sI109
F-0.00179219619707634
sI110
F-0.0018935494099831464
sI111
F0.004410685775670257
sI112
F-0.00426808628580288
sI113
F-0.00277489227230936
sI114
F0.0024231426991832123
sI115
F0.005736747081863998
sI116
F0.0005280347733708857
sI117
F-0.0020547369653922585
sI118
F-0.004170533053907974
sI119
F0.002317712084541043
sI120
F-0.0011204366540597127
sI121
F0.0030760413383646708
sI122
F0.00427914412022544
sI123
F-0.003910155766096871
sI124
F0.006366541377647214
sI125
F-0.005501303324673897
sI126
F0.00426265217936428
sI127
F-0.0017337688853615524
ssI35
g8
(tRp46
I64
F-0.006679836085793788
sI65
F-0.0027724677671463003
sI66
F0.0008644832089243316
sI67
F-0.0024105982336928475
sI68
F0.0060987809395170066
sI69
F-0.0007334131118128707
sI70
F0.0015159041486660144
sI71
F-0.0008336971945682075
sI72
F-0.006096555672433652
sI73
F0.0012147645615442914
sI74
F0.0022316280305658175
sI75
F-0.006644566692949767
sI76
F-0.0011526234520537184
sI77
F0.0031161925600397115
sI78
F0.0016536079471601644
sI79
F-0.0004247286873834518
sI80
F0.000308192465885221
sI81
F-0.005027371739113386
sI82
F0.0031660270199362498
sI83
F-0.004264461711372218
sI84
F-0.0006758438363561688
sI85
F-0.004437470319461317
sI86
F0.0008802936701694071
sI87
F0.0008497963695428722
sI88
F-0.0048430113317989715
sI89
F-0.004244248913559104
sI90
F-0.0007597944324035171
sI91
F0.0007539938162097365
sI92
F-0.0055417759687179545
sI93
F-0.005745340639000574
sI94
F-0.002633871186357356
sI95
F0.0044993956385358256
sI96
F-0.006071931835487742
sI97
F-0.000319096311756965
sI98
F-0.011364968869267529
sI99
F0.0009396470012775848
sI100
F0.008849145869071429
sI101
F-0.0049778911346873
sI102
F0.008689520897390406
sI103
F-0.005145623687843132
sI104
F0.0024547660725878573
sI105
F0.002307364872167277
sI106
F-0.005568481402177685
sI107
F0.00027394789507992015
sI108
F-0.0036843972253185974
sI109
F0.0012887646630756742
sI110
F0.0005323056661165311
sI111
F0.0010564213385432094
sI112
F-0.0006416927414929091
sI113
F-0.004724275269212135
sI114
F0.0016617877521770696
sI115
F0.0016268291493515773
sI116
F-0.005178644860272298
sI117
F-0.0004693299802720435
sI118
F-0.003638155863506005
sI119
F0.001127921452596952
sI120
F-0.00039070459468606625
sI121
F0.004037191182419402
sI122
F0.0009952765667780314
sI123
F-0.008512273113780009
sI124
F0.0051112259498513725
sI125
F-0.004099638452412433
sI126
F0.00453708773952802
sI127
F-0.000557169876415786
ssI36
g8
(tRp47
I64
F0.0013997072396230597
sI65
F-0.0011507638572927827
sI66
F0.0013106864734226476
sI67
F-0.0020156241912189796
sI68
F0.003530808380310098
sI69
F-0.0039046592429249796
sI70
F0.001828082400800969
sI71
F0.0016861951727304588
sI72
F-0.007157464626677219
sI73
F-0.0008781185842751966
sI74
F0.004249518790347478
sI75
F-0.0009635341449192859
sI76
F-0.004192432509982148
sI77
F0.004590275295334282
sI78
F0.0011416384891678698
sI79
F-0.0010288225992380678
sI80
F-0.0009175007527906266
sI81
F-0.003394357441689619
sI82
F0.006683987431038776
sI83
F-0.0021934352077218012
sI84
F0.0021457188846671243
sI85
F-0.007257230046021978
sI86
F0.0020050037731933076
sI87
F-0.002359399163238942
sI88
F-0.002700191187157809
sI89
F-0.007770797413726749
sI90
F-0.002905601332525542
sI91
F-0.0017679844435188289
sI92
F-0.004471715116592944
sI93
F-0.0071409646396029995
sI94
F-0.0016716575025790313
sI95
F-0.003639005306053786
sI96
F-0.005727904873744226
sI97
F1.8032195499916416e-05
sI98
F-0.009792554790846992
sI99
F-0.002161027421209949
sI100
F0.005029498554526938
sI101
F-0.0023312940151189974
sI102
F0.003750110142760404
sI103
F-0.002999306888923343
sI104
F-0.0004770371931078276
sI105
F0.0004604400747058209
sI106
F-0.001988011795629323
sI107
F-0.00013381909012316384
sI108
F-0.004030961369169952
sI109
F0.003972678280914137
sI110
F0.0033022156045067674
sI111
F-0.0015839038725214325
sI112
F8.228086204877053e-05
sI113
F-0.004168991662355289
sI114
F-0.002536545258813346
sI115
F-0.0020485558402386873
sI116
F-0.006464914082657752
sI117
F-0.00431715458637005
sI118
F-0.0030575157658388704
sI119
F0.00022063155230435467
sI120
F0.0047867568735666995
sI121
F0.002845510525548655
sI122
F-0.003885914989217205
sI123
F-0.005541457305810473
sI124
F0.002720265901364858
sI125
F0.0005803150495689319
sI126
F0.0036528070106761246
sI127
F0.001765178748562003
ssI37
g8
(tRp48
I64
F0.004739173165297431
sI65
F-0.003023532761069839
sI66
F0.0008999250181575046
sI67
F-0.0021947268395243378
sI68
F0.0034895546674699697
sI69
F-0.001883787071923544
sI70
F0.002751529860588006
sI71
F-0.00044047438130787194
sI72
F-0.00621557656653011
sI73
F0.0009265000330681397
sI74
F0.0037203109044760124
sI75
F0.0027358379853229258
sI76
F-0.002224131111245263
sI77
F0.003623168087144956
sI78
F-0.003252760135465946
sI79
F-0.0017707212038177106
sI80
F-0.0006231202883015295
sI81
F0.001949751119001817
sI82
F0.004619317884712192
sI83
F-0.0037007528298372955
sI84
F0.0060752663766600575
sI85
F-0.0055816249611491285
sI86
F0.00039979271146782004
sI87
F-0.004574235868064291
sI88
F0.00021423456618271797
sI89
F-0.004160104425167073
sI90
F-0.003532626050897035
sI91
F-0.0014242524712439347
sI92
F-0.004912012570533948
sI93
F-0.005912535137042706
sI94
F0.0014999057397007342
sI95
F-0.005024205626929985
sI96
F-0.002761023069888195
sI97
F0.0011917481608959674
sI98
F-0.001767730497490539
sI99
F-0.0032049439151915224
sI100
F0.0036219418637788636
sI101
F-0.0023363711955231166
sI102
F0.005074108853953142
sI103
F-0.006575156175311543
sI104
F0.0005767690050082999
sI105
F0.0030388382530010067
sI106
F0.00410720465332004
sI107
F-0.0005485503913133553
sI108
F-0.007549710745403339
sI109
F0.008071547707497476
sI110
F0.003353393042633573
sI111
F-0.0008320064990203524
sI112
F0.000920054757270126
sI113
F-0.003695508762623303
sI114
F-0.0036493888151120746
sI115
F-0.004077109409671716
sI116
F-0.003280236550519123
sI117
F-0.0012404814449664796
sI118
F0.0004505781519245115
sI119
F-0.0010327044656497802
sI120
F0.010900094762054573
sI121
F0.0015591398196803238
sI122
F-0.0055141902612721675
sI123
F-0.0018338913173145666
sI124
F0.003367784305095387
sI125
F-0.0015025293298642083
sI126
F0.002570583099446049
sI127
F0.0015596412064995523
ssI38
g8
(tRp49
I64
F0.003278740377074166
sI65
F0.0017900629368576418
sI66
F-0.0009140848553720556
sI67
F-0.0023377556496376223
sI68
F0.0017332422334542467
sI69
F-0.002337404349895559
sI70
F0.002081873268028357
sI71
F0.0006870051953733847
sI72
F-0.004392472597455869
sI73
F0.00047191722370709704
sI74
F0.0019708525512255114
sI75
F0.0038854474418251314
sI76
F-0.0013770090055371374
sI77
F0.002847525515055324
sI78
F-3.1121370688402834e-05
sI79
F-0.0013636595320904578
sI80
F-0.0010245142339174924
sI81
F0.004001971668501648
sI82
F0.0031309306642525072
sI83
F-0.0003739115275399481
sI84
F0.004285239279620576
sI85
F-0.0016460960195895692
sI86
F0.0006824377436527847
sI87
F-0.0012243751113452414
sI88
F0.0010547443361342572
sI89
F-0.0005848295865816353
sI90
F-0.005557887996269685
sI91
F-0.0013372623519925116
sI92
F-0.006386977948385566
sI93
F-0.0033793853099602935
sI94
F0.0018621357028398907
sI95
F-0.005284691418122149
sI96
F-0.0029397749014046354
sI97
F0.002352158225308304
sI98
F0.003954678032041302
sI99
F-0.003805596309295605
sI100
F0.0006197699168393782
sI101
F-0.004549570283463091
sI102
F0.002290839983105166
sI103
F-0.0029821914410666454
sI104
F-0.0002960703227769966
sI105
F-0.0018742914841067468
sI106
F0.00381426567758114
sI107
F-0.0014769909504950439
sI108
F-0.004956856073674525
sI109
F0.003961784282727925
sI110
F0.0025598577019599928
sI111
F-0.002116307182840086
sI112
F-1.0914989801362113e-05
sI113
F0.0005198322681763043
sI114
F-0.002408813157169678
sI115
F-0.005082589086207136
sI116
F-0.00149258926734753
sI117
F-0.005259943766456512
sI118
F0.0012731231248558964
sI119
F-0.001979218000220677
sI120
F0.008036085713076098
sI121
F-0.00020326156321145625
sI122
F-0.004019040395987428
sI123
F0.0021913863940742984
sI124
F-9.649359053033035e-05
sI125
F-0.0008179200262206319
sI126
F-0.0017878028682708864
sI127
F0.002207434385349199
ssI39
g8
(tRp50
I64
F0.009109306708111737
sI65
F-0.0022553806402497473
sI66
F0.001017307684224803
sI67
F-0.001528777464029396
sI68
F-0.0006985230769663487
sI69
F-0.005819879080225873
sI70
F0.001699997421424244
sI71
F0.0013624325537845356
sI72
F-0.007261483576780184
sI73
F0.0004968686644408462
sI74
F5.230375580198643e-05
sI75
F0.008571780853956908
sI76
F-0.0020727288462339157
sI77
F0.006502541756540553
sI78
F-0.0040008381806894994
sI79
F-0.0013121890431712397
sI80
F-0.0015011810652045283
sI81
F0.0030400767701178324
sI82
F0.0036510634412239254
sI83
F-0.004401483152640862
sI84
F0.009918627420231146
sI85
F-0.0003517498958372642
sI86
F-0.0013790570654361213
sI87
F-0.008706393330285722
sI88
F0.004104051088523756
sI89
F0.0010601738748940634
sI90
F-0.0068360766184606125
sI91
F-0.0030722667540670733
sI92
F-0.008060461866117767
sI93
F-0.003114880879604198
sI94
F0.00013954183583118597
sI95
F-0.013434638149539853
sI96
F-0.0047486994012227845
sI97
F0.004588961687383135
sI98
F0.012196477401054177
sI99
F-0.009310682844953367
sI100
F-0.004098312575355336
sI101
F-0.003410459038668364
sI102
F-0.003327033078052674
sI103
F-0.0061762081411601034
sI104
F-0.0007966723356711283
sI105
F-0.002118414926623287
sI106
F0.00813974807465047
sI107
F-0.00045471212195792034
sI108
F-0.010210833711087676
sI109
F0.003814223956952004
sI110
F0.00481490857743934
sI111
F-0.0039327738018359315
sI112
F-0.0017325018103461652
sI113
F0.003734981607502927
sI114
F-0.003584261852224726
sI115
F-0.01143631009848335
sI116
F-0.002840762654463081
sI117
F-0.008347744695105021
sI118
F0.0011574291695491132
sI119
F-0.003423346149734097
sI120
F0.017684362631342113
sI121
F-0.0014813581524196447
sI122
F-0.004922987258007493
sI123
F0.007059079743531905
sI124
F-0.004976593196678676
sI125
F-0.003698937157800526
sI126
F-0.005382524468381124
sI127
F0.00209708494481291
ssI40
g8
(tRp51
I64
F-0.014304332862220126
sI65
F-0.010021654796698354
sI66
F-0.0009985455747043724
sI67
F-0.0008384361699716791
sI68
F0.007068396153660994
sI69
F0.0005958532002930029
sI70
F0.0027106764470623936
sI71
F-0.0036868520446692176
sI72
F-0.0009872824972791683
sI73
F0.005310424637613052
sI74
F0.0038869789419036745
sI75
F-0.0019263685672757994
sI76
F0.010581563901848114
sI77
F-0.0024430747709915032
sI78
F-0.0021697806637882167
sI79
F0.0008133964836520868
sI80
F0.0028889953792090393
sI81
F-0.009974995529360393
sI82
F0.0030417128495004555
sI83
F-0.006204375119573675
sI84
F-0.0023804453359831624
sI85
F0.009513075258815689
sI86
F0.0017805931961726081
sI87
F-0.005847192271554808
sI88
F-0.002640246476309372
sI89
F0.006858487438490134
sI90
F-0.0037237834140632486
sI91
F0.00452109350378934
sI92
F0.0021145813976523003
sI93
F-0.0035867000963924352
sI94
F0.0036755172643204944
sI95
F0.004396608620097024
sI96
F-0.00672333470985455
sI97
F0.008352000203876775
sI98
F0.0027335967577227327
sI99
F-0.004295989174922725
sI100
F0.002804985306368008
sI101
F-0.002022376656526823
sI102
F0.008494346485431521
sI103
F-0.002834191432789221
sI104
F0.008693549633870245
sI105
F0.0021904698333799232
sI106
F-0.005080451482756919
sI107
F-0.0008288748312110514
sI108
F-0.006756164475996897
sI109
F0.0012578197474301701
sI110
F-0.0024577860595254076
sI111
F0.00656235523350894
sI112
F-0.0025108564378463257
sI113
F0.002733705824642562
sI114
F-0.0012725975711806376
sI115
F-0.0032171918837469
sI116
F0.009370913204535248
sI117
F0.00844861447043779
sI118
F-0.00840614315172992
sI119
F0.00883130960027672
sI120
F-0.0027412340204066928
sI121
F0.0047363818396330155
sI122
F0.006730293582141974
sI123
F0.005969272952632428
sI124
F0.009725935979416313
sI125
F-0.007450778806783398
sI126
F0.0052964992813092785
sI127
F-0.005415891746055838
ssI41
g8
(tRp52
I64
F-0.004451355506140325
sI65
F-0.0020654191116917186
sI66
F-0.002027682608309757
sI67
F0.0011329827638148094
sI68
F0.0009954342853214922
sI69
F0.0013375364824968058
sI70
F9.216933449882998e-05
sI71
F-0.0006383500070650331
sI72
F-0.0013273006178893783
sI73
F0.0015164997247171506
sI74
F0.0005466643417392969
sI75
F0.0008727535618991794
sI76
F0.004125379564114907
sI77
F0.0010388784516075927
sI78
F-0.0012074701575503386
sI79
F-0.0006753861317233413
sI80
F0.0011227772545648969
sI81
F-0.0005962257605161397
sI82
F-0.003193093777180142
sI83
F-0.0006834339449419385
sI84
F0.0013298609171616524
sI85
F0.004636062491555857
sI86
F-0.00026534367071211765
sI87
F-0.002630019392238861
sI88
F-0.0006905611084255081
sI89
F0.0018654580403410026
sI90
F-0.0001818472880515364
sI91
F0.0042139322895173295
sI92
F-0.0014788577165478138
sI93
F0.0009145057083182623
sI94
F0.0009732698895990885
sI95
F0.0017500095870279255
sI96
F-0.0007737849937322166
sI97
F0.003300704407272698
sI98
F0.0032658809818725152
sI99
F0.0003575173679228425
sI100
F0.0009819657102793481
sI101
F-0.0011752165339616507
sI102
F0.00545890688056001
sI103
F-0.002578171830693329
sI104
F0.005018239953962613
sI105
F0.0020073475839699428
sI106
F-0.000944825149249061
sI107
F0.0007073345766859568
sI108
F-0.001993820672136652
sI109
F0.003466888454072513
sI110
F0.0012825444562155506
sI111
F0.004824595730233659
sI112
F-0.0018900323487789957
sI113
F0.0015462820110847368
sI114
F-0.0006142071444126567
sI115
F0.0015202048448398051
sI116
F0.003925239927416373
sI117
F0.002474537299769013
sI118
F-0.0015089293288734753
sI119
F0.004574829317447251
sI120
F0.0018760613876655538
sI121
F0.0019347068633390268
sI122
F0.0012737635701422889
sI123
F0.0008595213798085872
sI124
F0.003855263072975391
sI125
F-0.003704861596336681
sI126
F0.0018201775642768699
sI127
F-0.003219085329271385
ssI42
g8
(tRp53
I64
F-0.0038265713824867644
sI65
F-0.004360153423928239
sI66
F-0.001413795103298972
sI67
F-0.0009820918159490937
sI68
F0.0049535204812990756
sI69
F0.0021346354598717784
sI70
F0.00013364348192902768
sI71
F-0.001282889552414767
sI72
F-0.003084071205108991
sI73
F0.002206115755368274
sI74
F0.003279488038997884
sI75
F-0.0026049840277573245
sI76
F-0.00040046280585272063
sI77
F0.0012704162968911804
sI78
F-0.00017003574861099643
sI79
F0.0007348928382247465
sI80
F0.002671879461462917
sI81
F-0.004675679764605322
sI82
F0.0011918210115488617
sI83
F-0.0033731901950747392
sI84
F0.00031889754202356937
sI85
F-0.0007366519599619767
sI86
F0.003095533411316821
sI87
F-0.0023174859722610076
sI88
F0.00032379514187110746
sI89
F-0.0031696288336496604
sI90
F8.273038926617398e-05
sI91
F0.0018671046352460626
sI92
F0.00121930949664127
sI93
F-0.00354196699417406
sI94
F0.0006510473592850433
sI95
F0.002488345127840464
sI96
F-0.003822991926739392
sI97
F0.0019488247205275372
sI98
F-0.0024707772378069694
sI99
F-0.0009768193250030656
sI100
F0.003264075671556931
sI101
F-0.001378867885700605
sI102
F0.004986099639685704
sI103
F-0.0009441976518599172
sI104
F0.003812147166217724
sI105
F0.0006580839447238363
sI106
F-0.003958244513470793
sI107
F-0.001418120041346418
sI108
F-0.0032183461236035774
sI109
F0.0032959186069697016
sI110
F0.0033181016875827216
sI111
F0.004218751992484458
sI112
F-0.0015318175883925933
sI113
F-0.0012729731966583447
sI114
F0.0011556675124602012
sI115
F0.0031172709347224194
sI116
F0.0005595448971710008
sI117
F0.006380636433608729
sI118
F-0.00371710543492074
sI119
F0.007258071214212612
sI120
F0.0006270415893885168
sI121
F0.00011381133025683604
sI122
F0.0023979900323577562
sI123
F-0.0019242365585653983
sI124
F0.00690520591394358
sI125
F-0.00337193604643137
sI126
F0.005532036743406349
sI127
F-0.001894592870610386
ssI43
g8
(tRp54
I64
F-0.004568359453874452
sI65
F-0.0025117033309616605
sI66
F-0.00025860847706536813
sI67
F-0.0008839073069655318
sI68
F0.004886064743274601
sI69
F6.458154187239115e-05
sI70
F0.0009787997717333602
sI71
F0.000537490671933692
sI72
F-0.0020702235445787366
sI73
F0.0007045957997849764
sI74
F0.0013558235525527149
sI75
F-0.004794280191349057
sI76
F-0.0010635292750078495
sI77
F0.0009748263859707065
sI78
F0.0029171362334113647
sI79
F-0.0008919678047528106
sI80
F0.0013326557291844774
sI81
F-0.0009017814039289021
sI82
F0.0013562630775977558
sI83
F-0.0015873559614130632
sI84
F0.0014927558341283483
sI85
F-0.0048219812301013645
sI86
F0.003205504306953911
sI87
F0.0023978402340617015
sI88
F-0.00273741876574331
sI89
F-0.003954964286947012
sI90
F-0.0001892966634124436
sI91
F6.163626112770953e-05
sI92
F0.00023444679992931804
sI93
F-0.0007108517913936513
sI94
F-9.479350173798689e-05
sI95
F-2.8113507661504292e-05
sI96
F-0.003406686966183574
sI97
F-0.0011333019501672118
sI98
F-0.009650379773878328
sI99
F-0.0006330652801140418
sI100
F0.004945356919367678
sI101
F0.0008674622139098582
sI102
F0.0066532472044306444
sI103
F-0.0007466466185146528
sI104
F0.002421045753060687
sI105
F0.0022242422789300596
sI106
F-0.003955721310211236
sI107
F0.00010396700856442267
sI108
F-0.0019806924818804097
sI109
F0.004544053715293695
sI110
F0.0011222786753573434
sI111
F0.0035306028386169375
sI112
F-0.0015415278917398606
sI113
F-0.005332921595233618
sI114
F0.0010529142212308178
sI115
F0.003691647783590296
sI116
F-0.00521820789816367
sI117
F0.0028865428283540466
sI118
F-0.0026068960336455673
sI119
F0.0021291743286502617
sI120
F0.0014916031605319198
sI121
F0.002805918818492364
sI122
F-0.0005748056455927687
sI123
F-0.007133736454597084
sI124
F0.004844873993805896
sI125
F-0.004073312188645352
sI126
F0.0034418889889824217
sI127
F-0.0020794691599690875
ssI44
g8
(tRp55
I64
F-0.0005546289936201457
sI65
F0.0003477002075679261
sI66
F0.0003589916312388998
sI67
F-0.00013833834049435708
sI68
F0.003761207421728457
sI69
F-0.0037049060490583177
sI70
F0.001414216261294625
sI71
F0.00031308617546553627
sI72
F-1.1138388984952124e-05
sI73
F0.00020920535808368454
sI74
F0.002928085353447264
sI75
F-0.0037745800867878174
sI76
F-0.004317504453854691
sI77
F0.0025200754175255546
sI78
F0.0013675303097357354
sI79
F-0.00011688832975753112
sI80
F0.0015480965762794193
sI81
F-0.0016285603070561433
sI82
F0.002020728704904638
sI83
F-0.0004091537141976705
sI84
F0.0014489199621066477
sI85
F-0.006442852617452053
sI86
F0.00032706951326445723
sI87
F0.0018451488015704823
sI88
F-0.000796100255071331
sI89
F-0.00664172029225027
sI90
F-0.001577094238343281
sI91
F0.00048787152000903525
sI92
F8.877432115641166e-05
sI93
F-0.0013734000011893302
sI94
F0.0007259571267032091
sI95
F-0.00356267427392823
sI96
F-0.0030910689224431633
sI97
F-0.0007265386829945107
sI98
F-0.007754679596642025
sI99
F-0.003004454778536296
sI100
F0.004453468372825614
sI101
F-0.00060010343768388
sI102
F0.0017932795579220827
sI103
F-0.0012272480426856222
sI104
F-0.0005141282535139775
sI105
F0.0009787309108430587
sI106
F0.0007891601400727763
sI107
F-0.001460743497709925
sI108
F-0.002476666823041798
sI109
F0.004777101224779217
sI110
F0.002679118398044296
sI111
F0.0022669892799618324
sI112
F0.0004003290160681986
sI113
F-0.004781502967808521
sI114
F-0.0008641577236906508
sI115
F-0.001265851131572772
sI116
F-0.004535685486810682
sI117
F0.0018668210031500241
sI118
F-0.0003677632624758358
sI119
F0.0020691648247410247
sI120
F0.0015312801115109616
sI121
F0.002629388702939362
sI122
F-0.0038309886933757063
sI123
F-0.005129897995505505
sI124
F0.0034786142184511193
sI125
F-0.0003765894863518625
sI126
F0.0010427550525928912
sI127
F0.00016770062801938247
ssI45
g8
(tRp56
I64
F0.004210551197867678
sI65
F-0.00042265912314539675
sI66
F-0.0016085636038911408
sI67
F0.0010487377962329148
sI68
F0.0017747708271683219
sI69
F-0.0016003193865210933
sI70
F0.001189597664297435
sI71
F0.0016093965934684813
sI72
F-0.0006491995631337342
sI73
F0.0004199790311452863
sI74
F0.0041334400746520705
sI75
F0.0023376928171908247
sI76
F-0.0013939490804669391
sI77
F0.0056937286070127225
sI78
F-0.0027631317468576697
sI79
F-0.0024835247644091184
sI80
F0.00026740472727013697
sI81
F0.002101530217609292
sI82
F0.0031789082919194576
sI83
F-0.0023450454533683177
sI84
F0.00510769171207201
sI85
F-0.0039047552939612045
sI86
F-0.0005449241970866193
sI87
F-0.0029560178116382952
sI88
F0.001495590889977336
sI89
F-0.004734548546061978
sI90
F-0.003555023309716274
sI91
F-0.0008634289009264058
sI92
F-0.004204909517706935
sI93
F-0.0005701990101894588
sI94
F0.0028922986777440165
sI95
F-0.0055732068658267036
sI96
F-0.002865582995158724
sI97
F0.0008709445001667976
sI98
F-0.0008751538115323249
sI99
F-0.004031154636624522
sI100
F0.001918351768780455
sI101
F-0.0012292337440999773
sI102
F0.0022206814129789028
sI103
F-0.0016050379550604443
sI104
F0.002485597298992408
sI105
F-0.000134290088892108
sI106
F0.003976170133186251
sI107
F0.0008563721672764729
sI108
F-0.005366499362819998
sI109
F0.005322056364116102
sI110
F0.0035742525066023954
sI111
F0.000771485772693011
sI112
F-5.266706806745265e-05
sI113
F-0.0019082886420645985
sI114
F-0.00214759799886375
sI115
F-0.004716994611703634
sI116
F-0.004143280289014603
sI117
F0.000725084059696308
sI118
F0.0031245608927163025
sI119
F0.0018258839361764941
sI120
F0.008789491647567073
sI121
F0.0005824005629322518
sI122
F-0.005144304007126347
sI123
F-0.0009274289638736836
sI124
F-0.0006638301110580439
sI125
F-0.001272729374656712
sI126
F0.002225994609173877
sI127
F0.002119177903249699
ssI46
g8
(tRp57
I64
F0.00042012343019482936
sI65
F0.0011168921442177128
sI66
F0.0005928222239141675
sI67
F0.00047907631619239875
sI68
F-0.0006761397777113824
sI69
F-0.0030927523894452758
sI70
F0.0008292199879011766
sI71
F0.0013824625655440737
sI72
F-0.0009945596442192497
sI73
F-0.00012314324802514617
sI74
F0.004069304758580466
sI75
F0.004159214206999997
sI76
F-0.0013711011805128206
sI77
F0.004062941315805918
sI78
F-0.003285662774769195
sI79
F-0.001973880065424135
sI80
F0.0022429203272701873
sI81
F0.0010485651862210496
sI82
F0.003663079792235622
sI83
F-0.0009051181268804738
sI84
F0.003991408181972061
sI85
F-0.0027773636961695865
sI86
F-0.0014513237083433387
sI87
F-0.004928816481254057
sI88
F-0.0006646338000787626
sI89
F-0.000148704793350799
sI90
F-0.003378255689253496
sI91
F-0.003146714019243375
sI92
F-0.0006722037221662856
sI93
F-0.0006348250801979789
sI94
F0.00037252882694900294
sI95
F-0.004429511961700297
sI96
F0.00012535633892304525
sI97
F0.0034534481415103395
sI98
F0.004419430722457871
sI99
F-0.0025703876296975774
sI100
F0.0009027235701139784
sI101
F-0.000671342498773276
sI102
F0.0020172158698941955
sI103
F-0.003027150342390274
sI104
F0.00017223876880218512
sI105
F0.001120739146831394
sI106
F0.0030007752876230307
sI107
F-0.0010753166613562252
sI108
F-0.005064268450293685
sI109
F0.0045650573611655905
sI110
F0.004997385342705753
sI111
F0.0006494680934956619
sI112
F0.00014919425958440796
sI113
F0.001627397353056448
sI114
F-0.003910229722231123
sI115
F-0.004114999218016678
sI116
F-0.0014253633697416846
sI117
F0.00034059843322248486
sI118
F0.0016588040246349007
sI119
F-0.001187640658614672
sI120
F0.008073984582952911
sI121
F0.0016145897635014613
sI122
F-0.0035357956357102613
sI123
F0.0008097089254709291
sI124
F0.0032484338917480177
sI125
F-0.0016569237797871698
sI126
F0.0006737372637073369
sI127
F-0.00020364523496443806
ssI47
g8
(tRp58
I64
F0.00598912516022245
sI65
F-0.0038367169476845437
sI66
F0.0014847297142776073
sI67
F-3.5905967306657356e-05
sI68
F0.0003026200528842862
sI69
F-0.011124914484116595
sI70
F0.005278675237051698
sI71
F-0.0009940763932456099
sI72
F-0.004151339646183469
sI73
F0.0005083116556887876
sI74
F0.006662272042869914
sI75
F0.008825376823853922
sI76
F-0.0017439518745646712
sI77
F0.007546243634549526
sI78
F-0.005607218616186491
sI79
F-0.002320460664432299
sI80
F0.0029865238743202044
sI81
F-0.0007224298172540337
sI82
F0.008170073348134662
sI83
F-0.00734352109212002
sI84
F0.012581601714926158
sI85
F-0.002982475397876058
sI86
F-0.0016890707364633922
sI87
F-0.010104229134121458
sI88
F0.0038475485099547595
sI89
F-0.0023989796917642226
sI90
F-0.009211764254408799
sI91
F-0.0018268210995980867
sI92
F-0.00026609451433699344
sI93
F-0.0017208899891607901
sI94
F0.003931487221304692
sI95
F-0.013855988864611951
sI96
F-0.008627773485392926
sI97
F0.00638136790275939
sI98
F0.011608805870648753
sI99
F-0.010095815367539358
sI100
F-0.0003250621372933496
sI101
F0.0010461469903781688
sI102
F-0.0016526497190754441
sI103
F-0.005154019359596711
sI104
F0.0005364291633948413
sI105
F0.0002542847287568219
sI106
F0.011269477329149161
sI107
F0.0005585866709111954
sI108
F-0.016041526537310474
sI109
F0.008451364551120525
sI110
F0.007773410785088116
sI111
F-0.001602108015774309
sI112
F0.0009883270842048265
sI113
F0.0037289874874504923
sI114
F-0.006143189942265115
sI115
F-0.014563811960973247
sI116
F-0.003157619787027378
sI117
F-0.00044255059757411275
sI118
F-0.003318550827769936
sI119
F-0.0017852029304873162
sI120
F0.018237888848982878
sI121
F0.0019337986590642778
sI122
F-0.004923010981385135
sI123
F0.006630154381988013
sI124
F-0.00014032706844091842
sI125
F-0.003676164395756371
sI126
F-0.0007364509298466034
sI127
F0.0008424036441282602
ssI48
g8
(tRp59
I64
F-0.014750157965994996
sI65
F-0.010376536293824639
sI66
F-0.0018594578696846718
sI67
F0.0018500292121985291
sI68
F0.008396410473028115
sI69
F-0.0009768864516726658
sI70
F0.0007110335523202174
sI71
F-0.006783258355436776
sI72
F-0.00250344253002481
sI73
F0.0064612825012992595
sI74
F0.0047111702475169295
sI75
F-0.0035580132898536594
sI76
F0.009071502672981024
sI77
F-0.0011852697483250927
sI78
F-0.0020156274635816465
sI79
F0.0005087967675173189
sI80
F0.00733782061443341
sI81
F-0.015201364603517432
sI82
F0.0037578545074738214
sI83
F-0.011645946864279593
sI84
F-0.00037869982606808793
sI85
F0.012184872992744757
sI86
F0.0026862936641670553
sI87
F-0.01098091157853484
sI88
F-0.0010959361918029104
sI89
F0.007461173444559707
sI90
F-0.004382294099983129
sI91
F0.006514870686839925
sI92
F0.009946262227387374
sI93
F-0.00029121081203561374
sI94
F0.0027432543790303836
sI95
F0.0017252081955429967
sI96
F-0.011010423093093209
sI97
F0.012106581692758524
sI98
F0.004197981134904975
sI99
F-0.008368898914481587
sI100
F0.004476876319793322
sI101
F0.005431392521874363
sI102
F0.011440012301762692
sI103
F-0.0051311682448287425
sI104
F0.011245551338704668
sI105
F0.001657013617168524
sI106
F-0.004731795388553378
sI107
F0.0014447638543306802
sI108
F-0.011361991728358677
sI109
F0.003758643478244655
sI110
F-0.001428393343019243
sI111
F0.011153997406878112
sI112
F-0.0013299334637223894
sI113
F0.003721700062464207
sI114
F-0.0015083544648439996
sI115
F-0.002608045449741747
sI116
F0.011742129827259255
sI117
F0.013671495943813573
sI118
F-0.011301514810488604
sI119
F0.01270231026657162
sI120
F-0.0006669270165830308
sI121
F0.00510785327749012
sI122
F0.0065501683438438305
sI123
F0.007744424917436701
sI124
F0.013499408201023843
sI125
F-0.009423724606060113
sI126
F0.007870541458884918
sI127
F-0.005251603317204591
ssI49
g8
(tRp60
I64
F-0.008482192171094463
sI65
F-0.004041534292882298
sI66
F6.277634464781626e-05
sI67
F0.001969411291449648
sI68
F0.0048317940308798945
sI69
F-0.0015923748838179745
sI70
F0.002667181784852189
sI71
F-0.00332150030618552
sI72
F0.0002624374566108817
sI73
F0.002238793249434201
sI74
F0.004176073948433004
sI75
F-0.0015808534713098155
sI76
F0.005234110029564981
sI77
F0.0016617581035471135
sI78
F-0.0008858788121249828
sI79
F0.0010707008585767762
sI80
F0.0053215604204030625
sI81
F-0.005259195663473932
sI82
F0.0016598482767732324
sI83
F-0.006496545365528817
sI84
F0.00042479145871549223
sI85
F0.007464894746120221
sI86
F0.0017971140405441558
sI87
F-0.0062083002202820954
sI88
F-0.0017502216543642075
sI89
F0.0023374326775119285
sI90
F-0.001567647019405478
sI91
F0.006794522800266143
sI92
F0.006853551348731239
sI93
F0.0013595180264580789
sI94
F0.0012666181481555878
sI95
F-0.0021256640199795065
sI96
F-0.005091925834598477
sI97
F0.007233341558639853
sI98
F0.002720936280564582
sI99
F-0.0027517222355361703
sI100
F0.00041841672506811965
sI101
F0.001567909908277612
sI102
F0.00827628816220683
sI103
F-0.0021600110616734934
sI104
F0.008201179853166745
sI105
F0.0008334625925678872
sI106
F-0.003295368732642338
sI107
F0.0008462869959938484
sI108
F-0.005310846040144204
sI109
F0.001979660076433749
sI110
F0.0006145197610514588
sI111
F0.005742105282270125
sI112
F-0.0013349715315083969
sI113
F0.0007310150092116463
sI114
F-8.997557956282439e-05
sI115
F-0.0010912285304837176
sI116
F0.00757296797733644
sI117
F0.009572805216115629
sI118
F-0.005306315509449167
sI119
F0.008885922287258196
sI120
F3.997131547970278e-05
sI121
F0.003184993037200946
sI122
F0.0061278798518561006
sI123
F0.0033908091481534156
sI124
F0.008817279956303383
sI125
F-0.003182772710546062
sI126
F0.005364931407691994
sI127
F-0.002868087335728179
ssI50
g8
(tRp61
I64
F-0.007322722307347551
sI65
F-0.0029429525303137785
sI66
F-0.0004287647095601004
sI67
F0.0015221976983010401
sI68
F0.0029463230326066702
sI69
F0.001571372521683878
sI70
F0.0010152878672298406
sI71
F-7.271902162620473e-05
sI72
F-0.00021678678937767264
sI73
F0.001236043999635402
sI74
F0.004981594518897991
sI75
F-0.005694949241312215
sI76
F0.002269973144426587
sI77
F-0.002398637821684652
sI78
F0.0007110967133886921
sI79
F0.0006376212167272443
sI80
F0.004231183737971606
sI81
F-0.00408943370180673
sI82
F-0.0009044320966961341
sI83
F-0.004920605380530906
sI84
F-0.0005152849220619448
sI85
F0.0019116000201988656
sI86
F0.0031497870610697953
sI87
F-0.0015391016856222948
sI88
F-0.0023211917765840664
sI89
F0.00040845967944586417
sI90
F0.0010819699538466266
sI91
F0.003490290592681324
sI92
F0.004937534375805602
sI93
F0.0023645111520872153
sI94
F0.00016878887793460887
sI95
F-0.00010702570800655547
sI96
F-0.00222315801899824
sI97
F0.0020158392934043158
sI98
F-0.003563231596994322
sI99
F-0.0011484506690497358
sI100
F0.0037941973480132376
sI101
F0.005730006748699245
sI102
F0.00555852874765651
sI103
F0.0005064147464582745
sI104
F0.0020964342468234465
sI105
F0.0023004776300572494
sI106
F-0.0035814460850536268
sI107
F0.0007364759808183593
sI108
F-0.004311015705565443
sI109
F0.0016873220357772783
sI110
F0.0004947441551991258
sI111
F0.0044127797949487435
sI112
F-0.002181502797601827
sI113
F-0.0003038933566963839
sI114
F0.0021422495178574506
sI115
F-0.0005713818289264056
sI116
F0.0019266055473654727
sI117
F0.009950048780522414
sI118
F-0.0048631218797670125
sI119
F0.004638412447484796
sI120
F4.848636956868822e-05
sI121
F0.0036524836165741877
sI122
F0.002068015516038058
sI123
F-0.0042398946286191525
sI124
F0.006753865363327486
sI125
F-0.005207439469817265
sI126
F0.004919312443409313
sI127
F-0.0033619859772214948
ssI51
g8
(tRp62
I64
F-0.0059135728439482565
sI65
F-0.004441734887221573
sI66
F-0.000621418456278434
sI67
F0.001506043197960534
sI68
F0.005331651047047688
sI69
F0.0008274626988776955
sI70
F0.0016828509133381404
sI71
F-0.002958286900222983
sI72
F6.962779531816295e-05
sI73
F0.0014483508456974775
sI74
F0.006890230277554194
sI75
F-0.007372711492579318
sI76
F-0.002507437376615176
sI77
F-0.001484837487581633
sI78
F0.0018858640371073596
sI79
F0.0008834070697411999
sI80
F0.003290785818088744
sI81
F-0.005669406275177847
sI82
F0.0011880357343719693
sI83
F-0.0024086044503545865
sI84
F4.631434359341043e-05
sI85
F-0.0035859969350686255
sI86
F0.005210273631492571
sI87
F0.0011049745496384525
sI88
F-0.0017689008050907182
sI89
F-0.005999414316239607
sI90
F-0.00029371955641643285
sI91
F0.004498473781024802
sI92
F0.005421708497220125
sI93
F0.0019261856637145575
sI94
F0.0007417420288323688
sI95
F-0.0013171982895515595
sI96
F-0.003936701368180479
sI97
F7.418639909539384e-05
sI98
F-0.01078920147506507
sI99
F-0.000367076330723972
sI100
F0.005485046151865429
sI101
F0.004338963497262752
sI102
F0.007792064857414617
sI103
F0.0019590008240409663
sI104
F0.003495905104667131
sI105
F0.0008355507027997516
sI106
F-0.005374489821356277
sI107
F0.0013132265551224862
sI108
F-0.0024987045258306655
sI109
F0.0038772215882909977
sI110
F0.002310297346106825
sI111
F0.002916830668924141
sI112
F-0.00031964104246550524
sI113
F-0.005882530153067056
sI114
F0.0008792992811542508
sI115
F-0.0007604849469924767
sI116
F-0.0016740426538362258
sI117
F0.008360620002125464
sI118
F-0.005391285111694924
sI119
F0.004818268998271278
sI120
F0.0005164533539920776
sI121
F0.0036718049637150703
sI122
F-0.0006079668850752135
sI123
F-0.005848726153671142
sI124
F0.006977978053497021
sI125
F-0.003696407484859778
sI126
F0.00504930016421346
sI127
F-0.0026647374235094943
ssI52
g8
(tRp63
I64
F0.0016382075676001204
sI65
F-0.0004692122518468626
sI66
F0.0011000068850725178
sI67
F0.0001794042165926328
sI68
F0.00264108751177903
sI69
F-0.003968996379185975
sI70
F0.0012401859642350757
sI71
F0.00073075390456578
sI72
F0.000966937205968246
sI73
F0.0011155416152511606
sI74
F0.007467870845052194
sI75
F-0.002732002229450293
sI76
F-0.004551632562297729
sI77
F0.0038393731764347835
sI78
F-0.0008013970115342838
sI79
F-0.0008663006683658779
sI80
F0.0025691255852703667
sI81
F-0.001582866549331851
sI82
F0.0016987862215480437
sI83
F-0.003175645721488814
sI84
F0.0007362884321411355
sI85
F-0.00483982001463443
sI86
F0.0012874076016504985
sI87
F-0.0016199708204295508
sI88
F-0.0004416847546311867
sI89
F-0.006763920123784472
sI90
F-0.00032551236111394964
sI91
F4.856819327553097e-05
sI92
F0.004107830751073131
sI93
F0.0009083131118662923
sI94
F0.0001807958811488748
sI95
F-0.006352539311218866
sI96
F0.0004172635353938666
sI97
F-0.0003790080127375788
sI98
F-0.008792779307877245
sI99
F-0.001993183371899853
sI100
F0.005049421913240842
sI101
F0.0032003586319748287
sI102
F0.0035539236971830904
sI103
F0.002940223731104696
sI104
F-0.00156753238958697
sI105
F0.00040506483836477453
sI106
F0.001182051810988952
sI107
F0.00019417581935963625
sI108
F-0.001838518427493705
sI109
F0.006738530236923908
sI110
F0.0032516975614565193
sI111
F0.0029778470200900378
sI112
F0.003409171025134026
sI113
F-0.006465069288247868
sI114
F-0.00110454992674135
sI115
F-0.0026444344674603068
sI116
F-0.005522831708781941
sI117
F0.00493994711013851
sI118
F-0.00032633388898734294
sI119
F0.002806399267205767
sI120
F0.003765955263994324
sI121
F0.003010950507618562
sI122
F-0.0048365973710843835
sI123
F-0.0023112317278248503
sI124
F0.003498444231979308
sI125
F-0.00040034829959735086
sI126
F0.0008076138348020905
sI127
F0.0031137502592896897
ssI53
g8
(tRp64
I64
F0.0045952102684843985
sI65
F0.0006021372725069169
sI66
F0.0004954452775883353
sI67
F0.0002858892751103704
sI68
F0.0012088536639037672
sI69
F-0.0033619115718268
sI70
F0.0011194840327451467
sI71
F-0.0004652236504632393
sI72
F0.002951783938250501
sI73
F0.0005735374100181161
sI74
F0.001099262780149486
sI75
F0.002278968401620276
sI76
F-0.00021066361263846132
sI77
F0.002593469183032821
sI78
F-0.0014946618198755832
sI79
F0.0011176209381116812
sI80
F0.0018475233704218124
sI81
F0.0021130022640479446
sI82
F0.0005541574880856998
sI83
F-0.0020472665178941666
sI84
F0.006461399930664829
sI85
F-0.002858644067261735
sI86
F0.0002250070174067844
sI87
F-0.0043547160772770994
sI88
F0.001409839711605106
sI89
F-0.0048839237201702915
sI90
F-0.004061449400902751
sI91
F-0.0014842380431250868
sI92
F0.0017294400069123765
sI93
F0.0012888957552701168
sI94
F0.0005138009386287817
sI95
F-0.007034254373284781
sI96
F-0.0012323458827199084
sI97
F0.000825920296377599
sI98
F0.0008411733182410458
sI99
F-0.0053318067125096265
sI100
F-0.00035857735168593586
sI101
F0.0008682799622975754
sI102
F0.0019102567893180822
sI103
F-0.0006935023810215928
sI104
F0.0001384801190266481
sI105
F-0.0008014999908543976
sI106
F0.003152854757283394
sI107
F0.0004549518680465106
sI108
F-0.004526856637408763
sI109
F0.005112512276963264
sI110
F0.0035643024523511813
sI111
F0.00024806384968088004
sI112
F0.001184492791331141
sI113
F-0.001691585449655405
sI114
F-0.003109035383803082
sI115
F-0.005073921807498538
sI116
F-0.003758469671240514
sI117
F0.0019910688091904654
sI118
F0.0024529158682584395
sI119
F0.0020269257906425932
sI120
F0.006681590381662585
sI121
F0.0014167609360539034
sI122
F-0.0026999813834207723
sI123
F-0.0010117852769391965
sI124
F0.0006289705990255904
sI125
F-0.00021230181071833778
sI126
F0.0008601261081264108
sI127
F0.0016760306629607883
ssI54
g8
(tRp65
I64
F0.002945139723835383
sI65
F0.00011337653812080083
sI66
F0.0002784462989249918
sI67
F0.0024642572151423194
sI68
F-0.00032724865222670356
sI69
F-0.0055597408322539095
sI70
F0.0015844368347069087
sI71
F-2.4526624897380297e-05
sI72
F0.002357265296859455
sI73
F-0.0002822479461722257
sI74
F0.008621632557230962
sI75
F0.004940801705273629
sI76
F-0.0013764480774559414
sI77
F0.003077248049975797
sI78
F-0.0018403747067700454
sI79
F-0.0012310522733786824
sI80
F0.005070999686485056
sI81
F0.003059744754888917
sI82
F0.0011838825999320895
sI83
F-0.002076763100620361
sI84
F0.004280495820159259
sI85
F-0.000701592247918487
sI86
F0.0002555846650827307
sI87
F-0.00490002821856849
sI88
F0.0014717411310354383
sI89
F-0.0010292619821452387
sI90
F-0.0013233137736987737
sI91
F-0.0010550805115793127
sI92
F0.0071755758183202865
sI93
F0.0031830106319413903
sI94
F0.0014322963152788048
sI95
F-0.010181199754092459
sI96
F-0.0028362294108983514
sI97
F0.003342623839506422
sI98
F0.0035128687156250633
sI99
F-0.0033517035569412615
sI100
F0.0007902022017226786
sI101
F0.005385442272198466
sI102
F0.001730551725188893
sI103
F0.002182758874279089
sI104
F0.00047673233203233446
sI105
F0.0005736363100091642
sI106
F0.003723370895333507
sI107
F0.000931551728700501
sI108
F-0.004473851705475532
sI109
F0.010066250081996913
sI110
F0.004878713959332496
sI111
F-0.002658074016153762
sI112
F0.0016805804248644551
sI113
F0.001677533261565097
sI114
F-0.002734487335115756
sI115
F-0.006641482179371114
sI116
F-0.0006504559996049697
sI117
F0.00656828561236023
sI118
F-0.00032396750938573274
sI119
F0.00025496705845530737
sI120
F0.006914234531069974
sI121
F0.0012754607401036016
sI122
F-0.005280037236329574
sI123
F0.0004586020180860434
sI124
F0.0006659727805528459
sI125
F0.0007001013531527321
sI126
F0.0004441853330070784
sI127
F0.0016243851833486918
ssI55
g8
(tRp66
I64
F0.0036596997244526244
sI65
F-0.004101439471164631
sI66
F-0.00041586856208447733
sI67
F0.00324304115548005
sI68
F0.0014734012027350252
sI69
F-0.011644963426228718
sI70
F0.0038619084961271266
sI71
F-0.001831214695597406
sI72
F-0.000996296774024157
sI73
F-0.000779342994650689
sI74
F0.013355758911108361
sI75
F0.00928627884328651
sI76
F-0.004356815477751355
sI77
F0.007514280341432395
sI78
F-0.005487267058531492
sI79
F-0.0010582283722621127
sI80
F0.006854841175172122
sI81
F-0.0012386434261315218
sI82
F0.008793595117083598
sI83
F-0.0068910630495666505
sI84
F0.008802821562181463
sI85
F-0.0023760199648039785
sI86
F-0.0009421979126504881
sI87
F-0.010621946685403902
sI88
F0.0028784254973537723
sI89
F-0.0016443633166550098
sI90
F-0.007505850202224063
sI91
F-0.0007136007759815958
sI92
F0.009120154264134128
sI93
F-0.0014610790846454952
sI94
F0.007278099265535157
sI95
F-0.01942792288831843
sI96
F-0.008103822197143888
sI97
F0.0055094294452914866
sI98
F0.010643864018193427
sI99
F-0.010858948094174202
sI100
F0.003122016918273036
sI101
F0.006567129092760781
sI102
F-0.0011111281163242988
sI103
F-0.0024638060451894874
sI104
F0.0013098674211229344
sI105
F0.0009528913661074324
sI106
F0.0066658825641714384
sI107
F0.00020310884974484184
sI108
F-0.013673148590104649
sI109
F0.012921155175242859
sI110
F0.00792276821434728
sI111
F-0.0005892618853865365
sI112
F0.0025921150720302276
sI113
F0.003560457592727292
sI114
F-0.008910161268098906
sI115
F-0.013519608873370899
sI116
F-0.001571149380495567
sI117
F0.0051515145855362075
sI118
F-0.004355569491893526
sI119
F0.0010897647607983516
sI120
F0.01667791623367932
sI121
F0.0025004337099452014
sI122
F-0.007021548922541107
sI123
F0.005936875865579928
sI124
F-8.00613546252042e-05
sI125
F-0.003613791796515832
sI126
F0.0018049195050383825
sI127
F0.0011667128503159983
ssI56
g8
(tRp67
I64
F-0.0246640466929874
sI65
F-0.011979913998094758
sI66
F-0.004315157830355164
sI67
F0.004282815116029216
sI68
F0.012852265749281456
sI69
F0.0020849194626809103
sI70
F0.0017764339124968578
sI71
F-0.005799935462618341
sI72
F-0.0009720809668572048
sI73
F0.005793855901732695
sI74
F0.00923346461397962
sI75
F-0.006555193275477787
sI76
F0.01143734275522416
sI77
F-0.0055343089341727825
sI78
F0.00039721749289702203
sI79
F0.0005717205279610955
sI80
F0.007629136169800654
sI81
F-0.015284171857199349
sI82
F0.0006972521890980121
sI83
F-0.01014421629595734
sI84
F-0.006497878325350202
sI85
F0.015469382627131038
sI86
F0.004205583842509639
sI87
F-0.00830236793816657
sI88
F-0.004998621461917438
sI89
F0.006827318623532698
sI90
F0.0004730613596454052
sI91
F0.010399440767208825
sI92
F0.015199784837202048
sI93
F0.0020792947998250306
sI94
F0.0027269034716798433
sI95
F0.005253955000003165
sI96
F-0.009620097299397945
sI97
F0.012279493706394935
sI98
F-0.0010309909228599023
sI99
F-0.008340858347026053
sI100
F0.0037812153076776395
sI101
F0.008098769878273177
sI102
F0.016883266173091632
sI103
F-0.0027639958136298393
sI104
F0.01511885113053341
sI105
F0.0031800158322585472
sI106
F-0.009162032927414555
sI107
F0.002899396399154689
sI108
F-0.007818104426758668
sI109
F0.0009148250269559604
sI110
F-0.005850630230455546
sI111
F0.014565689510338993
sI112
F-0.003609739224959177
sI113
F0.004022886498250411
sI114
F0.0010726197798856143
sI115
F0.00012568905811152203
sI116
F0.016792265680089142
sI117
F0.020723373086499148
sI118
F-0.014405195065766346
sI119
F0.015299556958666706
sI120
F-0.007968007459538193
sI121
F0.0071543222242085435
sI122
F0.01003831040616874
sI123
F0.009541307372495639
sI124
F0.018759206828070356
sI125
F-0.01076913080641088
sI126
F0.008392787100776945
sI127
F-0.008860438330400084
ssI57
g8
(tRp68
I64
F-0.015663584181489904
sI65
F-0.00861424063526305
sI66
F-0.0031074939563558264
sI67
F0.0025240542271480902
sI68
F0.007322921156838545
sI69
F-0.0014817521154614783
sI70
F0.0017401325845095089
sI71
F-0.003909677500642608
sI72
F0.0022791218092390155
sI73
F0.0027914075281423078
sI74
F0.006015607236474965
sI75
F-0.007811762545838247
sI76
F0.008110223436565513
sI77
F-0.005269780164789654
sI78
F-0.0008638659331290715
sI79
F0.0025510994003717182
sI80
F0.008094264181125802
sI81
F-0.012927609864717351
sI82
F0.0001844917526750262
sI83
F-0.006481864812428047
sI84
F-0.005006530120733409
sI85
F0.007637569797817091
sI86
F0.003665988984538314
sI87
F-0.007131891746704424
sI88
F-0.005605928122216333
sI89
F0.0031340534833459504
sI90
F-0.0016225509862312043
sI91
F0.007873489421045673
sI92
F0.014848639238718158
sI93
F0.0029342201942166427
sI94
F0.0012461889309056274
sI95
F0.0005099628650464324
sI96
F-0.007276750955488411
sI97
F0.008018150358581484
sI98
F-0.0018515563481949454
sI99
F-0.0030917745451023914
sI100
F0.006374491357175801
sI101
F0.007967421747709785
sI102
F0.011437504906545378
sI103
F-0.00018114318294021328
sI104
F0.008395248535413171
sI105
F0.000979422316326372
sI106
F-0.007606674198871739
sI107
F0.0008999534426566813
sI108
F-0.004923311259272245
sI109
F0.0012849580136757078
sI110
F-0.0020950345323278
sI111
F0.0077534833355212005
sI112
F0.000704226082135774
sI113
F0.0023594066549711907
sI114
F0.0007470465169703355
sI115
F-0.000892739156850511
sI116
F0.007317866101453142
sI117
F0.016483476923791974
sI118
F-0.012091932529037426
sI119
F0.013349157612553597
sI120
F-0.008297142307728997
sI121
F0.0028654691732444134
sI122
F0.004772762544802838
sI123
F0.0033520044320424288
sI124
F0.012621986236600775
sI125
F-0.009607253206973502
sI126
F0.00823425817322952
sI127
F-0.003996067864690709
ssI58
g8
(tRp69
I64
F-0.01611866465725245
sI65
F-0.007247204231104878
sI66
F-0.002683529998133718
sI67
F0.003294948125096661
sI68
F0.008467953687173905
sI69
F-0.0027538423929248947
sI70
F0.0014456608308192516
sI71
F-0.003975628448021462
sI72
F0.0017997887811180924
sI73
F0.0013659389780087963
sI74
F0.008457330464911109
sI75
F-0.009965301006162225
sI76
F0.0018506808007322346
sI77
F-0.0038175411539520705
sI78
F0.0009460125774343091
sI79
F0.0007187553620523878
sI80
F0.007273917926903193
sI81
F-0.012295734903252179
sI82
F0.0022790557282872455
sI83
F-0.005864833448882033
sI84
F-0.005703759695584913
sI85
F-0.00022036653879801345
sI86
F0.004712188823846062
sI87
F-0.005913652652185322
sI88
F-0.006300423269838011
sI89
F-0.0015521092469525418
sI90
F0.0007534354267945626
sI91
F0.0032814649187553977
sI92
F0.0125745347233628
sI93
F0.0011486830483798517
sI94
F-0.00012382873695022893
sI95
F-8.91057629657232e-05
sI96
F-0.0045556863405277715
sI97
F0.004180286764157867
sI98
F-0.008105096206246878
sI99
F-0.005207845320367538
sI100
F0.005682292103468036
sI101
F0.009065415616314762
sI102
F0.008852954305655223
sI103
F0.0008802133501075731
sI104
F0.0044627089403339905
sI105
F0.003942716328470649
sI106
F-0.01048204393955456
sI107
F0.0018245490150970095
sI108
F-0.00505317733840429
sI109
F0.00451402249310266
sI110
F-0.0011290954651340076
sI111
F0.00538388236096234
sI112
F0.0018160306191810178
sI113
F-4.762076907529437e-05
sI114
F0.0006608707133052405
sI115
F1.3435605875709233e-05
sI116
F0.002472993378864655
sI117
F0.016580451666590144
sI118
F-0.011975880075980225
sI119
F0.009500636390371452
sI120
F-0.008078953776857833
sI121
F0.005842148247159562
sI122
F0.00240244353606537
sI123
F-0.004045252723899785
sI124
F0.01152039254883716
sI125
F-0.006303718730599194
sI126
F0.006452792854956671
sI127
F-0.006480408987824064
ssI59
g8
(tRp70
I64
F-0.011820181045507912
sI65
F-0.006111356730698779
sI66
F-0.0020310611840938992
sI67
F0.0048461487237179
sI68
F0.005689713417413693
sI69
F-0.006067171604362442
sI70
F0.0013672255263137562
sI71
F-0.004509627831334133
sI72
F0.0017352882884086938
sI73
F0.0013374425071600016
sI74
F0.012229407275683805
sI75
F-0.00915636806315432
sI76
F-0.001723552240026528
sI77
F-0.0018635914297338064
sI78
F0.0016715301681203122
sI79
F0.001314944004693021
sI80
F0.009274604498042677
sI81
F-0.01082050234374938
sI82
F0.001972034027245154
sI83
F-0.005560221619542353
sI84
F-0.004895921090335623
sI85
F-0.0051463793295435665
sI86
F0.003321920242060498
sI87
F-0.002041554261833368
sI88
F-0.003277043633769908
sI89
F-0.008837049838761398
sI90
F-0.0016984393316525903
sI91
F0.00014644652819245307
sI92
F0.016439071323914093
sI93
F0.0030584725505980142
sI94
F0.0009461022841901571
sI95
F-0.006289196685955839
sI96
F-0.005486240317997629
sI97
F0.001562046030180158
sI98
F-0.011441917829476877
sI99
F-0.0046828316279872335
sI100
F0.006900577978539293
sI101
F0.00873571350842927
sI102
F0.00648053366754488
sI103
F0.0025061364735819093
sI104
F0.002038868229648272
sI105
F0.002377728035663092
sI106
F-0.004292868761368382
sI107
F-0.0001593456831311936
sI108
F-0.00624083747720529
sI109
F0.007359395694540346
sI110
F0.0005479426013316746
sI111
F0.0002276858824348736
sI112
F0.0036835733895071356
sI113
F-0.004809768660432816
sI114
F-0.00010389920297845334
sI115
F-0.0042800885316835666
sI116
F-0.0075068562101751465
sI117
F0.016243653411371246
sI118
F-0.008756385745202742
sI119
F0.008050703270678961
sI120
F-0.004460541436034797
sI121
F0.006265329080175644
sI122
F-0.003342169054589921
sI123
F-0.008460421177164496
sI124
F0.007971880504325188
sI125
F-0.00332493078349929
sI126
F0.006155186981553595
sI127
F-0.0052067458781296875
ssI60
g8
(tRp71
I64
F-0.001769818040460862
sI65
F-0.004602753836873077
sI66
F-0.00018142239018359874
sI67
F0.0023877045644912095
sI68
F1.718804686537242e-05
sI69
F-0.009316240927297157
sI70
F0.002145927422329245
sI71
F-0.0010606303336067728
sI72
F0.0019810606122350988
sI73
F-0.0031565998093528464
sI74
F0.014573924493378299
sI75
F0.00012626410960908825
sI76
F-0.007322112318016324
sI77
F0.002800868746266648
sI78
F-0.001721324179719159
sI79
F-0.0019111776881556334
sI80
F0.009241458183949223
sI81
F-0.005381436443296211
sI82
F0.0047893085567992585
sI83
F-0.005203963654137973
sI84
F-0.00026420063692558625
sI85
F-0.011557759296061749
sI86
F0.0021355410998339926
sI87
F-0.004702013076820357
sI88
F-0.0021352155389166914
sI89
F-0.00879909957251773
sI90
F-0.0032940237935486037
sI91
F-0.002321868360353342
sI92
F0.016411367581180055
sI93
F0.003500960949673767
sI94
F0.0028614549667169533
sI95
F-0.015198861331969031
sI96
F-0.0042000569294674975
sI97
F0.00020651214600688297
sI98
F-0.005859818666661584
sI99
F-0.006081257809122019
sI100
F0.006490912323456566
sI101
F0.009615496829913339
sI102
F0.002417265237582591
sI103
F0.0048973044938170045
sI104
F-0.0022025336057200514
sI105
F0.004025094824992958
sI106
F-0.0005451494128479267
sI107
F0.002696733034198926
sI108
F-0.0073072381693286255
sI109
F0.010229445582902386
sI110
F0.006816899388595627
sI111
F-0.0017325097412033274
sI112
F0.008316749382158692
sI113
F-0.004967536168621667
sI114
F-0.003498215147412883
sI115
F-0.01047871686437916
sI116
F-0.011238549592948755
sI117
F0.015184119392318568
sI118
F-0.0038843636042600743
sI119
F0.005317835034407693
sI120
F0.002939188213358435
sI121
F0.006665188177558202
sI122
F-0.00856388394348211
sI123
F-0.007703863447150679
sI124
F0.0031279047538901998
sI125
F-0.0008892493023059005
sI126
F0.0014674820924364927
sI127
F0.0029191314062416702
ssI61
g8
(tRp72
I64
F0.006846807661110075
sI65
F-0.00042719746442939396
sI66
F0.0010237904470751708
sI67
F0.00408129320856879
sI68
F-0.0017541690543910204
sI69
F-0.01167740482990435
sI70
F0.0034645807239124292
sI71
F0.002592033888235152
sI72
F0.0015652621817601122
sI73
F-0.002013321667422486
sI74
F0.012469280131666123
sI75
F0.004942615661027504
sI76
F-0.007198392614343385
sI77
F0.004659732152416519
sI78
F-0.002678742472234831
sI79
F-0.0021399204931382898
sI80
F0.007201128570574681
sI81
F0.003570890669489706
sI82
F0.006961216951111542
sI83
F-0.0027487948495055533
sI84
F0.005784191042189724
sI85
F-0.009720161982920968
sI86
F-0.0005942859499987722
sI87
F-0.0067399895060344965
sI88
F0.002845716230206262
sI89
F-0.007872314604823731
sI90
F-0.0052534298356122725
sI91
F-0.0030080265456196723
sI92
F0.011387043264809696
sI93
F0.002946828878035548
sI94
F0.0038533363570212352
sI95
F-0.02095482492315326
sI96
F-0.0035179470252441635
sI97
F0.000782079517174912
sI98
F0.00021062347148661004
sI99
F-0.0064043155408900964
sI100
F0.0029879885876503004
sI101
F0.008152639882735797
sI102
F-0.001987142388534226
sI103
F0.0041906948242008656
sI104
F-0.003059462817150838
sI105
F0.0015091353670271456
sI106
F0.006835130525278169
sI107
F0.002207551163119484
sI108
F-0.010947346462560879
sI109
F0.01292389103234095
sI110
F0.01005031183194977
sI111
F-0.004885339894183102
sI112
F0.007156939423284706
sI113
F-0.004646579486049457
sI114
F-0.0073652099844094265
sI115
F-0.011871850683934725
sI116
F-0.008296046038825958
sI117
F0.006881185396560201
sI118
F0.003485287303847811
sI119
F0.002703785279801544
sI120
F0.013270371056095508
sI121
F0.002512623218835308
sI122
F-0.01206060862336305
sI123
F-0.0005940946922297747
sI124
F-0.0015659385975714862
sI125
F-0.0004698535070697366
sI126
F-0.002159817303307917
sI127
F0.007409682118387055
ssI62
g8
(tRp73
I64
F0.0063474959627368805
sI65
F-0.0019731237152286326
sI66
F0.00198515758765077
sI67
F0.0034899079230315436
sI68
F-0.003900094972837734
sI69
F-0.008731569136963763
sI70
F0.00491625476132503
sI71
F-0.0006353312972476496
sI72
F0.003661702992204886
sI73
F-0.00022133116897939375
sI74
F0.014106705665425958
sI75
F0.00890570516445876
sI76
F-0.005496832481915687
sI77
F0.00525083215986681
sI78
F-0.0022841239723617383
sI79
F-0.0014930516065222211
sI80
F0.009237328513836206
sI81
F0.0012796271937376975
sI82
F0.007035809913267584
sI83
F-0.0029831786076524288
sI84
F0.007083165087079223
sI85
F-0.009061771369005265
sI86
F-0.00043900111036907315
sI87
F-0.00804576188700953
sI88
F0.0006741708992311979
sI89
F-0.004372186628727187
sI90
F-0.004952196985916404
sI91
F-0.004419666240689436
sI92
F0.014991137536314956
sI93
F0.005348142070005956
sI94
F0.004911605190354968
sI95
F-0.021856974339760284
sI96
F-0.0003028424459113789
sI97
F0.001497602483334996
sI98
F0.008647569188677939
sI99
F-0.0038383074053973134
sI100
F0.002806318574583519
sI101
F0.010150626244400543
sI102
F-0.00296359549390935
sI103
F0.0032558743152639904
sI104
F-0.0026565034652719054
sI105
F0.0037486619767672113
sI106
F0.006475546928431368
sI107
F0.0031659937634483577
sI108
F-0.006227490282817313
sI109
F0.015535379302086691
sI110
F0.010269384067941829
sI111
F-0.00543633502456356
sI112
F0.008353002976857999
sI113
F-0.00015590135782663213
sI114
F-0.00710092506322979
sI115
F-0.013948559292233922
sI116
F-0.007978795556052192
sI117
F0.009181977959369007
sI118
F0.004248196883317625
sI119
F0.0003259752339393421
sI120
F0.013309756561714561
sI121
F0.0026946213922405433
sI122
F-0.011927612378573347
sI123
F0.0005821424554884927
sI124
F-0.0012028727892356426
sI125
F0.0005547587155015409
sI126
F-0.002283156190315935
sI127
F0.004329601090725309
ssI63
g8
(tRp74
I64
F0.00995794793233544
sI65
F-0.0019901281628530816
sI66
F0.0021768090735788783
sI67
F0.00652512272975272
sI68
F-0.0031630280869199916
sI69
F-0.012694797801526795
sI70
F0.0044736038036061855
sI71
F0.0009377528820643126
sI72
F0.0007625481372266761
sI73
F-0.0030306936565516617
sI74
F0.021198886654779606
sI75
F0.011051819455624052
sI76
F-0.00410389127394968
sI77
F0.0070897246573945645
sI78
F-0.006872958235908207
sI79
F-0.0030393666256380283
sI80
F0.013439235498204125
sI81
F0.0006238165193530159
sI82
F0.008040719156481782
sI83
F-0.009655220646957879
sI84
F0.010532718927975774
sI85
F-0.007426266306628672
sI86
F0.0016338326694684553
sI87
F-0.011377420780653295
sI88
F0.003690284317409207
sI89
F-0.006182819148955212
sI90
F-0.008010466135799057
sI91
F-0.004130782361133493
sI92
F0.019300647824330122
sI93
F0.0025327311153916687
sI94
F0.005994347701339886
sI95
F-0.02711595717505531
sI96
F-0.00550890415997131
sI97
F0.004889896955853284
sI98
F0.013083059678767146
sI99
F-0.011396655037576052
sI100
F0.0031678799514355243
sI101
F0.013569506555061379
sI102
F-0.0031651540131642174
sI103
F-0.0005343535750993275
sI104
F-0.0019775668920753355
sI105
F0.001295797550090488
sI106
F0.010366242018319361
sI107
F0.0033620022670893842
sI108
F-0.013142638436612826
sI109
F0.020581060102533567
sI110
F0.012194763594561389
sI111
F-0.0035838664154931436
sI112
F0.00744618184509481
sI113
F0.0019834807269813017
sI114
F-0.007134620701266099
sI115
F-0.0189547348026203
sI116
F-0.0073202715396639174
sI117
F0.013140603124856367
sI118
F0.001155757694891634
sI119
F0.003947846151518978
sI120
F0.019971797437194343
sI121
F0.003307508358159352
sI122
F-0.013485455029887966
sI123
F0.004650930277268324
sI124
F-0.0012518557935637788
sI125
F-0.0004890326279749571
sI126
F-0.0006154928852538861
sI127
F0.006217533731435439
ssI64
g8
(tRp75
I128
F0.004611290796240636
sI129
F0.026203420438340477
sI130
F-0.021752479106610642
sI131
F-0.032775693847613425
ssI65
g8
(tRp76
I128
F0.016644199995666218
sI129
F0.0049172010226493
sI130
F-0.013358789679854632
sI131
F-0.012735429249675767
ssI66
g8
(tRp77
I128
F-0.0008369981190472207
sI129
F0.0028943194443737242
sI130
F-0.002982290475350406
sI131
F-0.005898731855754395
ssI67
g8
(tRp78
I128
F-0.001450506182904021
sI129
F-0.0019298391281515077
sI130
F0.009664880549438024
sI131
F-0.006372262571154529
ssI68
g8
(tRp79
I128
F-0.018014482392212802
sI129
F-0.015242974118857468
sI130
F0.006690106075354906
sI131
F0.010911127480966128
ssI69
g8
(tRp80
I128
F0.012388505692919468
sI129
F-0.01645648792108949
sI130
F-0.017919885274414658
sI131
F0.011392151022748227
ssI70
g8
(tRp81
I128
F-0.010345005545129288
sI129
F0.001030162035441316
sI130
F0.004242336767573998
sI131
F-0.003739446760654345
ssI71
g8
(tRp82
I128
F0.0027536075040378426
sI129
F0.0045281092328771965
sI130
F-0.006770775850848038
sI131
F-0.008645064689401639
ssI72
g8
(tRp83
I128
F0.02510995933792871
sI129
F-0.011182939409157601
sI130
F-0.0008820704489157952
sI131
F-0.006000540614979296
ssI73
g8
(tRp84
I128
F-0.00854325530156535
sI129
F-0.004506548594167035
sI130
F0.0019867560317797335
sI131
F0.007224344307030916
ssI74
g8
(tRp85
I128
F-0.017972625507099587
sI129
F-0.0011209299316633525
sI130
F0.020468046794065244
sI131
F-0.021134838993289856
ssI75
g8
(tRp86
I128
F-0.008738991156716404
sI129
F0.01964174420037045
sI130
F-0.014865805050050371
sI131
F-0.011877704308617166
ssI76
g8
(tRp87
I128
F-0.012053311203468954
sI129
F-0.00957437472026213
sI130
F-0.0053070326065686865
sI131
F0.017918943789254512
ssI77
g8
(tRp88
I128
F-0.011949165167942229
sI129
F0.009334977009021451
sI130
F0.0018900444060602612
sI131
F-0.017537711812651107
ssI78
g8
(tRp89
I128
F0.005236426924351493
sI129
F-0.012518051081602614
sI130
F-0.006758214481704113
sI131
F0.002673029008950104
ssI79
g8
(tRp90
I128
F0.0032229706517108146
sI129
F-0.005728667423660527
sI130
F-0.0014233140383688432
sI131
F0.0027326715780277757
ssI80
g8
(tRp91
I128
F-0.012638488053016796
sI129
F-0.0035903866351074867
sI130
F0.018881686503271294
sI131
F-0.01234620600762976
ssI81
g8
(tRp92
I128
F0.018120993658535322
sI129
F0.01462999298199363
sI130
F-0.016727756875728864
sI131
F-0.01864580354782651
ssI82
g8
(tRp93
I128
F-0.018246661312034285
sI129
F0.004032964370250656
sI130
F0.007015067141464425
sI131
F-0.005622057592257441
ssI83
g8
(tRp94
I128
F0.015753609013689714
sI129
F-0.0030819478650082766
sI130
F-0.017413234006858833
sI131
F-0.007124845254476823
ssI84
g8
(tRp95
I128
F-0.01266530214256787
sI129
F0.017356547090367273
sI130
F-0.0005205367932376844
sI131
F-0.01665458320274969
ssI85
g8
(tRp96
I128
F-0.014171628554939359
sI129
F-0.009639632127391419
sI130
F-0.013278485321093873
sI131
F0.026321673371856813
ssI86
g8
(tRp97
I128
F-0.006956930050149154
sI129
F-0.00806351101307977
sI130
F0.002755319936770568
sI131
F0.0032515632061334613
ssI87
g8
(tRp98
I128
F0.018353813156416092
sI129
F-0.012980154324712098
sI130
F-0.021391318283103894
sI131
F-0.003326556963534325
ssI88
g8
(tRp99
I128
F0.0030638173968556737
sI129
F0.009831729855040267
sI130
F-0.007189127370581875
sI131
F-0.0021754255095287555
ssI89
g8
(tRp100
I128
F-0.0018384702712417743
sI129
F-0.000883016349962076
sI130
F-0.016324605464084218
sI131
F0.020153338189238226
ssI90
g8
(tRp101
I128
F0.009446818639355859
sI129
F-0.015957557658694846
sI130
F-0.007349836485221072
sI131
F0.003680690666703819
ssI91
g8
(tRp102
I128
F-0.01128399456253425
sI129
F-0.010126574299963812
sI130
F0.0009054679885424312
sI131
F0.013242785823256888
ssI92
g8
(tRp103
I128
F-0.012727029683934897
sI129
F-0.018854752754986243
sI130
F0.03510962282673606
sI131
F-0.013354537861071915
ssI93
g8
(tRp104
I128
F0.022111508237932686
sI129
F-0.009432648213693393
sI130
F0.005218194808535414
sI131
F-0.009505723004891544
ssI94
g8
(tRp105
I128
F-0.00441598678183257
sI129
F0.0059143290793090076
sI130
F0.007095266300714045
sI131
F-0.0013094583822604278
ssI95
g8
(tRp106
I128
F0.016553573093760956
sI129
F-0.029721461749892025
sI130
F-0.029063507466036496
sI131
F0.023314685437170857
ssI96
g8
(tRp107
I128
F0.021584968933224244
sI129
F-0.0051069673257906865
sI130
F-0.016340908705423658
sI131
F-0.01282213623899055
ssI97
g8
(tRp108
I128
F-0.01874501824146397
sI129
F0.0014360850841032436
sI130
F0.010739866036908312
sI131
F0.009154123544255164
ssI98
g8
(tRp109
I128
F-0.013877259443927056
sI129
F0.03155561916226729
sI130
F-0.020876404053569494
sI131
F0.004650720350376433
ssI99
g8
(tRp110
I128
F0.017739100487915938
sI129
F-0.014629954732545667
sI130
F-0.019033534351356702
sI131
F0.0004297707661734729
ssI100
g8
(tRp111
I128
F-0.019764528638298706
sI129
F-0.008666817577003905
sI130
F0.006014419736756015
sI131
F0.0016402540251009427
ssI101
g8
(tRp112
I128
F-0.00635686338835929
sI129
F-0.008335566315464822
sI130
F0.019642867129084644
sI131
F-0.0192870721742792
ssI102
g8
(tRp113
I128
F-0.02533082047675509
sI129
F-0.025554977684091786
sI130
F0.007696864365672313
sI131
F0.013634399384900346
ssI103
g8
(tRp114
I128
F0.014176521664635384
sI129
F-0.008990115927058178
sI130
F-0.0008520901580971796
sI131
F-0.014980085011988872
ssI104
g8
(tRp115
I128
F-0.017274541233813712
sI129
F-0.008126538517325152
sI130
F0.005782567763922098
sI131
F0.014123829734351898
ssI105
g8
(tRp116
I128
F-0.006006476622022116
sI129
F-0.003725417070842748
sI130
F0.004213258659420289
sI131
F0.0020435783234986106
ssI106
g8
(tRp117
I128
F-0.008841559471582782
sI129
F0.018225423137311274
sI130
F-0.01165604623013235
sI131
F-0.01614072253554632
ssI107
g8
(tRp118
I128
F-0.0027796856164183934
sI129
F-0.0015435388640029659
sI130
F0.0037540023412556698
sI131
F-0.003179975045639413
ssI108
g8
(tRp119
I128
F0.027951470176663752
sI129
F-0.02155397285735903
sI130
F-0.02153811369724385
sI131
F-0.004091362730065505
ssI109
g8
(tRp120
I128
F-0.021132550138050973
sI129
F0.010600945724987857
sI130
F0.016818925873848013
sI131
F-0.020262165569985502
ssI110
g8
(tRp121
I128
F-0.011222492406414538
sI129
F0.011500462542937195
sI130
F0.006114287255696917
sI131
F-0.021287171350392296
ssI111
g8
(tRp122
I128
F-0.015071033364865151
sI129
F-0.010751547601117857
sI130
F0.0039213297645543125
sI131
F0.01671652706822316
ssI112
g8
(tRp123
I128
F-0.00016612492867564563
sI129
F0.00275701812552451
sI130
F0.006149075283541924
sI131
F-0.016947487611802682
ssI113
g8
(tRp124
I128
F-0.0059201257522509595
sI129
F0.009459285829246324
sI130
F-0.014605243224072152
sI131
F0.013212328838195108
ssI114
g8
(tRp125
I128
F0.0076769199331002125
sI129
F-0.011976415149802282
sI130
F-0.009383639992590813
sI131
F0.007133097978242172
ssI115
g8
(tRp126
I128
F0.016814848183171482
sI129
F-0.01860984653111366
sI130
F-0.02160616041208596
sI131
F0.01391380158825679
ssI116
g8
(tRp127
I128
F-0.013829354312418532
sI129
F-0.010635103065332262
sI130
F-0.009184892002173055
sI131
F0.025890522816832028
ssI117
g8
(tRp128
I128
F-0.011588866385297701
sI129
F-0.02423334987525774
sI130
F0.029525742516768632
sI131
F0.0033697963423256166
ssI118
g8
(tRp129
I128
F0.017564702568924947
sI129
F0.012144183132539533
sI130
F-0.016467337840113283
sI131
F-0.014572586904219191
ssI119
g8
(tRp130
I128
F-0.014506386677989438
sI129
F-0.012194623871397197
sI130
F0.015171035665973378
sI131
F0.013154367067877966
ssI120
g8
(tRp131
I128
F-0.021536959740579203
sI129
F0.02749673007825773
sI130
F0.0044056578728793065
sI131
F-0.030347346673604537
ssI121
g8
(tRp132
I128
F-0.014647266708467827
sI129
F-0.005464154267217606
sI130
F0.00826092461340704
sI131
F0.003101136917659238
ssI122
g8
(tRp133
I128
F0.0028708309305498043
sI129
F-0.012776217154702027
sI130
F-0.012927758811276882
sI131
F0.019775058753812587
ssI123
g8
(tRp134
I128
F-0.016899146386884115
sI129
F0.01660281164934566
sI130
F-0.011189652302858285
sI131
F0.018731514634209995
ssI124
g8
(tRp135
I128
F-0.022281354373322154
sI129
F-0.020064866381816933
sI130
F0.010309806420370273
sI131
F0.01424019051938538
ssI125
g8
(tRp136
I128
F0.016194222231260404
sI129
F0.0029021990900171637
sI130
F-0.009413633268814588
sI131
F-0.016454378529329308
ssI126
g8
(tRp137
I128
F-0.01539851906421352
sI129
F-0.014387466510980065
sI130
F0.005714996618095811
sI131
F0.009841611242141675
ssI127
g8
(tRp138
I128
F-0.002779962729586136
sI129
F0.011366110787862075
sI130
F-0.005106936132883628
sI131
F-0.01633223373896388
sssS'output_end'
p139
I132
sb.