(innet
Network
p0
(dp1
S'hidden_end'
p2
I128
sS'output_node_count'
p3
I4
sS'L'
p4
I3
sS'hidden_node_count'
p5
I64
sS'input_node_count'
p6
I64
sS'weights'
p7
ccollections
defaultdict
p8
(g8
tp9
Rp10
I0
g8
(tRp11
I64
F0.012088394184946508
sI65
F-0.0034463082125911087
sI66
F-0.013159838748511711
sI67
F0.03424478147529591
sI68
F-0.007675298990040799
sI69
F0.023838524769930616
sI70
F-0.017768875848151244
sI71
F0.022510136242973815
sI72
F-0.0013830637073741468
sI73
F-0.0010186311126881959
sI74
F-0.01210954776988105
sI75
F0.017638407349541568
sI76
F-0.01916559821945939
sI77
F0.005754554890693048
sI78
F-0.013103915051104077
sI79
F-0.003724801394355091
sI80
F0.027781082759615966
sI81
F0.003018978877541081
sI82
F-0.028648789979299122
sI83
F-0.005419324311110592
sI84
F0.00866651687834371
sI85
F-0.004898009708775856
sI86
F0.002052164520263436
sI87
F0.022909528855881153
sI88
F-0.00988212421111029
sI89
F-0.015383254247204393
sI90
F0.01037226940135291
sI91
F-0.005459473859860926
sI92
F-0.001971684998319212
sI93
F0.02120244220681171
sI94
F-0.002694619289493844
sI95
F0.00032975706734794116
sI96
F0.0021154624739487746
sI97
F0.0034197895718901445
sI98
F0.022341924375078617
sI99
F0.030484514830154977
sI100
F0.004395251040242522
sI101
F0.02041346085135429
sI102
F-0.014835392576628609
sI103
F0.0029900949054067873
sI104
F-0.01748380689500164
sI105
F-0.009115789630560723
sI106
F0.0006202224580621672
sI107
F0.02705321141383147
sI108
F-0.016415310513300835
sI109
F0.002837198132277674
sI110
F0.004605517467529627
sI111
F-0.013428967151022065
sI112
F-0.012623997760290875
sI113
F-0.003790522649439488
sI114
F0.009520011545143883
sI115
F0.008622172859848783
sI116
F-0.02075567439360383
sI117
F-0.0015294687117017823
sI118
F-0.01653123521149738
sI119
F0.0024790222306882745
sI120
F0.00859906882140912
sI121
F0.006519974476905255
sI122
F0.021345760616511358
sI123
F-0.00530802201696104
sI124
F-0.014291696639158146
sI125
F-0.0006313072246863356
sI126
F-0.01885509779993029
sI127
F-0.005350534118143349
ssI1
g8
(tRp12
I64
F-0.0069893030364810635
sI65
F0.0107929387867509
sI66
F-0.022608112078292417
sI67
F0.002547413253769526
sI68
F-0.02450878859494583
sI69
F0.026863277278269888
sI70
F-0.00407281658884834
sI71
F0.0007366923561871251
sI72
F-0.004608914154824905
sI73
F0.008814127305460783
sI74
F-0.022215190509825077
sI75
F0.006981206796951256
sI76
F-0.008399345444990134
sI77
F0.0187755292478391
sI78
F0.02072649018418893
sI79
F-0.017961624897803882
sI80
F-0.0042516572964340915
sI81
F0.0001305375479494339
sI82
F-0.03354732290238746
sI83
F0.005767355629739897
sI84
F-0.0012957966118720943
sI85
F0.01311042309432803
sI86
F0.001775010124408991
sI87
F0.02567160941849293
sI88
F0.009755612986023636
sI89
F-0.008649778642029319
sI90
F0.008648742838591045
sI91
F-0.008006366815110888
sI92
F0.0024657980302960707
sI93
F0.011519320138467933
sI94
F-0.013666352708808957
sI95
F-0.005333703878437538
sI96
F0.00515118635217559
sI97
F0.007665554706005231
sI98
F0.017487830771088796
sI99
F0.01665182943793115
sI100
F0.020555679176642264
sI101
F0.001841657539274051
sI102
F0.017184072262870016
sI103
F-0.006044685889885831
sI104
F-0.01981417781673919
sI105
F-0.02506244215242336
sI106
F0.014727430503030088
sI107
F-0.0034544797810468833
sI108
F-0.011441534453739521
sI109
F-0.005393795091415004
sI110
F-0.016245879491176448
sI111
F0.001543592810901508
sI112
F0.007172341051549996
sI113
F-0.004261135272519556
sI114
F0.010719676486519975
sI115
F-0.004092358337057447
sI116
F-0.010045013254401028
sI117
F-0.0045639257107471885
sI118
F-0.006208013057263476
sI119
F-0.006816577533239403
sI120
F-0.010470493716953837
sI121
F-0.008187235941331156
sI122
F0.0167437054931934
sI123
F0.009347691106656049
sI124
F-0.0012230354151691262
sI125
F0.0037768756285828865
sI126
F-0.012172190355115246
sI127
F0.009280319369045673
ssI2
g8
(tRp13
I64
F0.012542728386162745
sI65
F0.0067836507442601765
sI66
F-0.021178459090699195
sI67
F0.023125266886688325
sI68
F-0.016921283512222562
sI69
F-0.0016551245621550749
sI70
F-0.0009682358531077681
sI71
F-0.007738130262133006
sI72
F0.022498180524625187
sI73
F-0.0027699338292399354
sI74
F-0.023963927735757652
sI75
F0.013217204860348072
sI76
F-0.00933986378317707
sI77
F0.021275324750921146
sI78
F0.01110793903019469
sI79
F-0.010736433192467226
sI80
F-0.014772322527976145
sI81
F0.018727498093521172
sI82
F-0.030075725263837005
sI83
F-0.009022532019520635
sI84
F0.016841748229566585
sI85
F-0.002761741993930692
sI86
F0.0058375253272191716
sI87
F0.006833246251130789
sI88
F-0.0037905808611246607
sI89
F-0.009301795973466203
sI90
F0.006576511764637724
sI91
F-0.024665762759740095
sI92
F-0.0073978506564881166
sI93
F0.018202690080947104
sI94
F0.0035345592353717655
sI95
F0.0011030916768163467
sI96
F-0.022376600683050436
sI97
F0.010078504123277529
sI98
F0.0274533667158676
sI99
F0.010210504315261403
sI100
F-0.0032196627334779523
sI101
F0.020294152694899203
sI102
F0.010204039647519736
sI103
F0.0020584320793645534
sI104
F-0.01810209371009813
sI105
F-0.0006835361941771535
sI106
F0.020369248636963197
sI107
F0.0013363405514186155
sI108
F-0.00014526739675564714
sI109
F0.0051028355351976085
sI110
F-0.003061716060481575
sI111
F0.021180041018496402
sI112
F0.00543848104435043
sI113
F-0.0036363975115560098
sI114
F0.00047001196318543397
sI115
F-0.015187676463418821
sI116
F0.005207107907342947
sI117
F0.002241682608910488
sI118
F0.0017660542489152191
sI119
F0.0023828524961826015
sI120
F-0.014328078520575252
sI121
F0.0018686496083395493
sI122
F0.012446075697853026
sI123
F-0.003098422891466022
sI124
F0.004547121212385134
sI125
F0.003704973813036132
sI126
F0.017266065143627385
sI127
F0.00980064810147722
ssI3
g8
(tRp14
I64
F0.003929346079031453
sI65
F-0.0046665749885487105
sI66
F-0.006570439895623439
sI67
F0.006428773052808051
sI68
F-0.02088597585639995
sI69
F0.010674769766230625
sI70
F-0.0010665414463802518
sI71
F0.005752899533120334
sI72
F-2.8691958571775643e-05
sI73
F0.012434721998202057
sI74
F-0.0008852691347044938
sI75
F0.010114275022712416
sI76
F-0.002026808604438674
sI77
F-0.012670520287828734
sI78
F0.011531978950000668
sI79
F6.024284797470453e-06
sI80
F0.0010637298977843866
sI81
F-0.004612061034592104
sI82
F0.003648959233078741
sI83
F0.001247838104250453
sI84
F0.01640346477243399
sI85
F0.008704848662493063
sI86
F0.009776568068646982
sI87
F0.005080182617631023
sI88
F-0.010953522032127783
sI89
F-0.0008566260081783718
sI90
F0.004461789431339463
sI91
F-0.002529795965411608
sI92
F0.010246203727039835
sI93
F0.030538009257498205
sI94
F0.00961176953746603
sI95
F0.006577417754104432
sI96
F0.0021891108509379774
sI97
F0.01384057028901094
sI98
F0.0043918459572148925
sI99
F-0.0007285351680800435
sI100
F-0.0015919381707317248
sI101
F0.011746909159859546
sI102
F-0.00010239491601182535
sI103
F-0.0004076361331056333
sI104
F-0.01106433503191926
sI105
F0.005363505017374962
sI106
F0.009852546089994226
sI107
F-0.017722056200071667
sI108
F-0.020261530175033248
sI109
F0.009639269729192546
sI110
F0.0015425015383171313
sI111
F0.005769698996215358
sI112
F0.01342625169320816
sI113
F-0.0004121181124376439
sI114
F0.0081602635119151
sI115
F-0.0006039881429409039
sI116
F-0.014023571522255121
sI117
F-0.02084049969814792
sI118
F0.005418305905963332
sI119
F0.011558401332496596
sI120
F0.003965229307883985
sI121
F0.019393547868822955
sI122
F0.01692558562372596
sI123
F0.0006371786169609824
sI124
F-0.006020304424542468
sI125
F0.016862778565820274
sI126
F0.003655282358024843
sI127
F7.087022171472972e-05
ssI4
g8
(tRp15
I64
F-0.016666522207530024
sI65
F-0.0026224120016017033
sI66
F-0.021541817595066334
sI67
F0.008864505113379415
sI68
F0.004533587325787712
sI69
F0.002371532255076038
sI70
F-0.001878805577363077
sI71
F0.02627404989315719
sI72
F0.026321756656823164
sI73
F0.002206628434418957
sI74
F0.0023952504385906697
sI75
F0.0008448578139349016
sI76
F-0.005775218201941248
sI77
F0.022534379469185028
sI78
F0.004887329287316674
sI79
F-0.001194062383638463
sI80
F0.010032511972278493
sI81
F-0.0012685515926424238
sI82
F-0.017392406540757323
sI83
F-0.010569877382632134
sI84
F0.005123016045416203
sI85
F0.011264847231051145
sI86
F-0.00740206259824719
sI87
F0.00530684708583898
sI88
F-0.011982183721803085
sI89
F0.019945478574128345
sI90
F-0.0029137555508500323
sI91
F-0.01354754940445731
sI92
F-0.007296504320295379
sI93
F-0.012226711617182119
sI94
F0.007049340355916426
sI95
F0.017333526435557172
sI96
F0.0023581661166166643
sI97
F0.014975741703846726
sI98
F-0.005581204747047964
sI99
F0.01799607296494898
sI100
F-0.0048978197472057255
sI101
F0.003562005142129973
sI102
F0.011159815986665593
sI103
F0.026157575802279086
sI104
F-0.006377067974275693
sI105
F0.0188620271525473
sI106
F-0.001224984666740072
sI107
F0.020259622973975894
sI108
F-0.006824615068391213
sI109
F0.011543125000621142
sI110
F0.01341389925589468
sI111
F0.0024987188986122007
sI112
F0.010093223137389291
sI113
F-0.029427954879866672
sI114
F0.0008681428975304004
sI115
F-0.0032726496311885813
sI116
F0.0006289323577551488
sI117
F-0.00666506460139906
sI118
F0.015984884200810383
sI119
F0.007966741873743773
sI120
F0.0052183768327125225
sI121
F0.004641657862622344
sI122
F0.005725699373706556
sI123
F-0.004943645384233126
sI124
F-0.013781172585640704
sI125
F-0.0013283168474599448
sI126
F-0.0010348759095290421
sI127
F0.004742116801003958
ssI5
g8
(tRp16
I64
F0.013908342827620337
sI65
F-0.007419829057344221
sI66
F-0.014799365016765468
sI67
F-0.005438078837508837
sI68
F-0.02299507345376826
sI69
F0.007282922180716273
sI70
F-0.008122140787682976
sI71
F0.010171632486465618
sI72
F0.010694774282554664
sI73
F0.005358553717718633
sI74
F-0.00424723174682696
sI75
F0.0008732409197306652
sI76
F-0.0054985507861600984
sI77
F-0.011292460208748488
sI78
F0.008708252094502107
sI79
F-0.0054946950556459505
sI80
F0.007214321207747435
sI81
F-0.007508440926252661
sI82
F0.007447238289332211
sI83
F-0.0106424835427288
sI84
F-0.012441091696431646
sI85
F0.015634818001055827
sI86
F0.013789456740202903
sI87
F0.01106691926485134
sI88
F-0.010220963289768632
sI89
F0.01821838486093611
sI90
F0.007016187436095041
sI91
F-0.02773405190237627
sI92
F-0.001971787302015029
sI93
F-0.004996976841541896
sI94
F0.006836805597601922
sI95
F0.02134616018024129
sI96
F0.01439785532631302
sI97
F-0.014722467203605224
sI98
F0.006061494522526433
sI99
F0.007868136425429197
sI100
F0.0007220620130688599
sI101
F0.020345999539529546
sI102
F0.010853345291380375
sI103
F-0.008381275713895797
sI104
F-0.005153566594984939
sI105
F0.016098182628108477
sI106
F-0.008394052405444092
sI107
F-0.006648603132824735
sI108
F-0.007376531925381371
sI109
F0.008094114843060987
sI110
F0.01926014668196201
sI111
F0.016913168462330593
sI112
F0.021308385676761334
sI113
F-0.012331186609197837
sI114
F0.00012918673467730515
sI115
F-0.03194611322222821
sI116
F0.0020352171298762154
sI117
F-0.007650768867618771
sI118
F-0.0007017472313928972
sI119
F0.005659067788771457
sI120
F0.003584721525917354
sI121
F0.005980438762191608
sI122
F-0.0009490081208291318
sI123
F-0.02149963834951496
sI124
F-0.016380435091142592
sI125
F0.0058301495901892245
sI126
F0.030891841392945006
sI127
F0.019306761112266865
ssI6
g8
(tRp17
I64
F-0.0008743407878604288
sI65
F0.000604015437040199
sI66
F-0.010744198281631749
sI67
F0.005453481717457541
sI68
F0.003667903513117762
sI69
F0.006628516771413584
sI70
F-0.026615126408855574
sI71
F-0.0032781043807978785
sI72
F0.017491415405363708
sI73
F0.00032922763365852054
sI74
F-0.0006897511206214048
sI75
F0.003796369330907987
sI76
F0.01228747661555098
sI77
F-0.022211317667558725
sI78
F0.017966069834102646
sI79
F0.0055003777558585145
sI80
F0.008106301145147609
sI81
F-0.015517788607835183
sI82
F-0.010616643796101626
sI83
F0.004160680486145546
sI84
F0.023191147088762576
sI85
F0.0008003924565538996
sI86
F0.00824062927400748
sI87
F-0.014332098836230387
sI88
F-0.005111327051061659
sI89
F0.0071582046368487496
sI90
F0.008676517607216938
sI91
F-0.017610733859106626
sI92
F0.00952199639839726
sI93
F-0.021994710003627207
sI94
F0.01321689855645146
sI95
F0.012964912814377295
sI96
F-0.0012862850154871863
sI97
F-0.017355277566038295
sI98
F-0.018355642036934475
sI99
F-0.0005450667882952953
sI100
F-0.014704735521895287
sI101
F-0.008319037843136066
sI102
F0.011320391405473482
sI103
F0.00581720431145637
sI104
F-0.005578990919110511
sI105
F0.015413644352079032
sI106
F0.01884162047967842
sI107
F0.004864355810109017
sI108
F-0.010696821820982036
sI109
F0.012938071398363483
sI110
F-0.006430425660766225
sI111
F0.006141936564585548
sI112
F0.013113076086748988
sI113
F-0.028378222573428823
sI114
F0.01107344760277523
sI115
F-0.010013375899095938
sI116
F-0.025382693262155632
sI117
F-0.008684797796798665
sI118
F0.029292547314034648
sI119
F-0.0013107549925351946
sI120
F-0.006313667593808292
sI121
F0.019178912027671868
sI122
F-0.01212861393946149
sI123
F-0.008678627873153863
sI124
F-0.018707476007088417
sI125
F0.009276338095236345
sI126
F-0.0052964846909866
sI127
F0.024995264924352764
ssI7
g8
(tRp18
I64
F-0.0029853677262727018
sI65
F-0.002277850921965219
sI66
F0.004931706743568044
sI67
F-0.006027338033059578
sI68
F0.0024074217334292577
sI69
F0.010444093489503908
sI70
F0.006965535819895407
sI71
F0.013693036369970952
sI72
F0.019636170243566696
sI73
F0.0003423808182133354
sI74
F-0.00752792374637196
sI75
F0.010344957538267377
sI76
F-0.0027742744472879035
sI77
F-0.0057028491720477964
sI78
F0.00804647102251687
sI79
F-0.02415549769127635
sI80
F0.005206093523400223
sI81
F-0.022535922966315382
sI82
F0.005788533583302055
sI83
F-0.009377744907946774
sI84
F0.007139750558785134
sI85
F0.020052818543001907
sI86
F0.0046246412017876895
sI87
F0.01191110340123302
sI88
F-0.030493380732667382
sI89
F0.016628853949243207
sI90
F-0.013631978380829197
sI91
F-0.019375161775408066
sI92
F-0.015846235104218075
sI93
F-0.017283311822248584
sI94
F0.006015699255710434
sI95
F0.014146926304106282
sI96
F0.0006950064430119524
sI97
F-0.006493962766705878
sI98
F-0.023240580556038958
sI99
F-0.02091071037353591
sI100
F0.007169222400344491
sI101
F0.016042958903751344
sI102
F0.026680932483348744
sI103
F0.006977154927666465
sI104
F0.014427629442947782
sI105
F0.00729701004378381
sI106
F0.009577044244373991
sI107
F-0.01395002598184329
sI108
F0.007784199812136954
sI109
F0.023656235634165586
sI110
F-0.004178941889024705
sI111
F0.028353688763506198
sI112
F0.0076282153672295
sI113
F-0.012624802325894349
sI114
F0.01886980874788798
sI115
F-0.01813701490760454
sI116
F-0.008357253230481953
sI117
F-0.003055374231534637
sI118
F0.01503094591165757
sI119
F0.030372043616469772
sI120
F-0.008010945046955032
sI121
F0.022774978311156647
sI122
F0.005498793320859794
sI123
F-0.008517229728161211
sI124
F-0.014145121862192333
sI125
F0.0010425608056358693
sI126
F-0.014597299558941608
sI127
F0.012502590005397154
ssI8
g8
(tRp19
I64
F0.00996502461156956
sI65
F0.0012608029453737085
sI66
F0.008687106388726589
sI67
F0.00695152770230003
sI68
F-0.035084567565576104
sI69
F0.029589275922038884
sI70
F-0.007547480507251488
sI71
F0.001215987101415438
sI72
F0.007155492335003889
sI73
F0.006985691132874623
sI74
F-0.008594585070259633
sI75
F0.009006984473047121
sI76
F-0.010166176669140036
sI77
F-0.0066072749390169265
sI78
F-0.001630069591968604
sI79
F-0.0024169795749412206
sI80
F0.001545831501213586
sI81
F0.0022571271913706245
sI82
F0.006187554568003439
sI83
F-0.009661475766337534
sI84
F0.016640939087088316
sI85
F-0.006520420420404054
sI86
F0.007025627739908974
sI87
F0.01218131528197193
sI88
F-0.006578535251683427
sI89
F-0.020012529245628016
sI90
F-0.01056770879606476
sI91
F-0.014146112954082342
sI92
F0.029330291159357546
sI93
F0.014523562897911802
sI94
F-0.003572467273480277
sI95
F-0.007771267084767379
sI96
F0.021687764236735504
sI97
F0.00532412036220123
sI98
F-0.0034473595650249132
sI99
F0.009220598048435339
sI100
F-0.017362769170525233
sI101
F0.023528349388375173
sI102
F-0.006607941035383497
sI103
F0.022701873574321716
sI104
F-0.028155937581861145
sI105
F-0.011702634556587115
sI106
F0.020313419595889757
sI107
F-0.002735273978821651
sI108
F-0.006884324440153414
sI109
F0.005865529501326455
sI110
F-0.009843089588915579
sI111
F0.013564529359407055
sI112
F0.006110675277862991
sI113
F0.0032779027654690927
sI114
F0.010182711214093273
sI115
F-0.013051370603165455
sI116
F-0.0031608812634144317
sI117
F-0.012393632125009253
sI118
F0.010312970218673787
sI119
F-0.0034220858361822632
sI120
F0.00751866643212558
sI121
F-0.01052506342560588
sI122
F0.009008585064875271
sI123
F0.000826304385498154
sI124
F-0.0017802180911146695
sI125
F-0.011156842698927008
sI126
F0.0035338668333081903
sI127
F0.025518998633204084
ssI9
g8
(tRp20
I64
F0.007623927403894854
sI65
F0.005919548292774633
sI66
F0.0030296289325068507
sI67
F0.013007036335228324
sI68
F-0.008968776272478676
sI69
F0.012791114326649868
sI70
F-0.0022308057978827583
sI71
F0.0005725684577371693
sI72
F-0.004518198853641086
sI73
F0.010704981824758607
sI74
F-0.010827637084802624
sI75
F-0.002854598730715138
sI76
F-0.0088239466786897
sI77
F0.02863883124104181
sI78
F-0.007029048227787537
sI79
F-0.011408274910031577
sI80
F0.020628144083157263
sI81
F0.006182801826069558
sI82
F-0.01038942881777463
sI83
F0.006360242192281883
sI84
F0.0074793255266580524
sI85
F0.0018247671798028652
sI86
F0.009672174443075462
sI87
F0.019438159398169872
sI88
F0.010708872795630736
sI89
F-0.00589032120642202
sI90
F0.005212003541186949
sI91
F-0.01046529642456022
sI92
F0.007762764916543341
sI93
F-0.00018243348569873776
sI94
F-0.0041786047908965165
sI95
F0.007185100187274075
sI96
F-0.003726736152956657
sI97
F0.018768111440402777
sI98
F0.016120839612851705
sI99
F0.026089714454280176
sI100
F0.010550131493544725
sI101
F0.004102509042077068
sI102
F-0.006166997903222868
sI103
F0.007616055674726047
sI104
F0.003093106465819826
sI105
F-0.011399853931854073
sI106
F0.016325711532407642
sI107
F-0.0033033148776671693
sI108
F-0.022493165942078633
sI109
F-0.011422195700651217
sI110
F0.003967736961033015
sI111
F-0.009625524968262321
sI112
F0.0016280851688367753
sI113
F0.018037927311792858
sI114
F0.008641581823417939
sI115
F0.007207469173830188
sI116
F-0.004487936412785359
sI117
F-0.0027774811492948326
sI118
F-0.0021110455932744836
sI119
F0.004662347571476981
sI120
F0.005797744340004674
sI121
F0.0021961311198980043
sI122
F0.017244594030855976
sI123
F0.0037475801660570613
sI124
F0.0020824361464454348
sI125
F0.006822992372161332
sI126
F-0.012499262020075215
sI127
F0.011083980379935288
ssI10
g8
(tRp21
I64
F-0.005712778782855268
sI65
F0.004115110043894104
sI66
F-0.0005760450573757835
sI67
F0.014036335849527296
sI68
F-0.0049455997045372915
sI69
F0.00472896564860642
sI70
F-0.030394506864557448
sI71
F-0.001793096479550317
sI72
F0.002544195126158728
sI73
F0.005841466490778649
sI74
F0.011987560689510554
sI75
F0.005246305955501252
sI76
F-0.022864866701801833
sI77
F-0.006088834876533526
sI78
F-0.01019570332986882
sI79
F-0.01852802772734462
sI80
F0.007774312296511743
sI81
F0.016781020488248977
sI82
F-0.018548989221810072
sI83
F0.019104093652142596
sI84
F0.008578567205671966
sI85
F0.009530572680933333
sI86
F0.007430265306357086
sI87
F0.007805375302190941
sI88
F0.006939446852870185
sI89
F-0.006782179258666949
sI90
F0.004418025257048175
sI91
F-0.00471751661853233
sI92
F-0.0074787606180426415
sI93
F0.009426866476025739
sI94
F0.003767408481289669
sI95
F-0.0033487792964056393
sI96
F0.020179735077313566
sI97
F-0.015049872338185633
sI98
F-0.004929028132677053
sI99
F0.00884842806361558
sI100
F0.009474224921950424
sI101
F0.014854566767616564
sI102
F0.003491889095457027
sI103
F0.023872661730730653
sI104
F-0.020195757944967484
sI105
F-0.024072860584871892
sI106
F0.003468328242419549
sI107
F0.0012455718475539773
sI108
F-0.01206636968741322
sI109
F-0.0025079136702528455
sI110
F-0.012215330231156497
sI111
F-0.005048295692176892
sI112
F-0.014270299706958275
sI113
F-0.005360189367195692
sI114
F-0.006050020972973874
sI115
F-0.0010032118801100907
sI116
F-0.010011612439395455
sI117
F-0.009116168225658432
sI118
F0.009548830682456409
sI119
F0.014830600345023103
sI120
F0.006809137955154636
sI121
F0.0015944508492343637
sI122
F0.01285910995705934
sI123
F-0.0005302291258835918
sI124
F-0.005317179481166083
sI125
F0.003923963675261083
sI126
F0.0023717360465770857
sI127
F-0.0005089477218944532
ssI11
g8
(tRp22
I64
F-0.009203378568243426
sI65
F-0.00791409335577505
sI66
F-0.004738122112849437
sI67
F-0.00018627589132270994
sI68
F-0.0233910573776477
sI69
F-0.007388413721784766
sI70
F-0.015920225123000162
sI71
F0.014585476254902564
sI72
F0.002933020073142316
sI73
F0.007858332274885593
sI74
F-0.015352615437821869
sI75
F-0.0037080648008528715
sI76
F0.006493438306127746
sI77
F0.010150360513240633
sI78
F0.00037933102232988545
sI79
F0.0027026078337773164
sI80
F-0.005124857856921557
sI81
F0.0030340196491265023
sI82
F0.01496836409755607
sI83
F0.016496640405343568
sI84
F0.006890534358768504
sI85
F0.001967743794748423
sI86
F0.0036197038530755726
sI87
F0.017842949372304757
sI88
F-0.011360732551337101
sI89
F0.00167545074262291
sI90
F0.011186413241414476
sI91
F-0.0008183623790239346
sI92
F-0.0033022469937426945
sI93
F-0.0027339048104355174
sI94
F-0.00022221876175770744
sI95
F0.018788130541787525
sI96
F-0.017581919463864917
sI97
F0.00556599506359183
sI98
F0.0027077447620282046
sI99
F0.005262280404600533
sI100
F-0.0010344612282528521
sI101
F0.007300573724330517
sI102
F0.01638008607540069
sI103
F0.0231552790674805
sI104
F-0.00835395294955916
sI105
F0.012014779554835403
sI106
F0.0132345085086726
sI107
F-0.007957551324461064
sI108
F-0.012174357683106495
sI109
F-0.0032363998479200606
sI110
F-0.007680050831794036
sI111
F0.0023526681396915773
sI112
F0.004719294948412949
sI113
F0.012945009716520992
sI114
F-0.006993855633979544
sI115
F-0.005618594889628335
sI116
F0.0021555292325103176
sI117
F0.015153630618466049
sI118
F0.008171521219070577
sI119
F0.0019440653988157684
sI120
F0.019344365286681098
sI121
F0.0030001376320105792
sI122
F0.0013379277072383257
sI123
F0.00037752492289261765
sI124
F-0.00892333601898781
sI125
F-0.01703553572268527
sI126
F0.011328854922300667
sI127
F-0.0046506582109786905
ssI12
g8
(tRp23
I64
F-0.01372737411181951
sI65
F0.02283671414646502
sI66
F-0.008403178178280582
sI67
F0.011312434125899731
sI68
F-0.010729622329253917
sI69
F0.008518323523490886
sI70
F-0.019500691509632975
sI71
F0.006582620826942585
sI72
F0.004617596345847021
sI73
F-0.0019834061657780016
sI74
F-0.007684409294853553
sI75
F0.0025884801988351773
sI76
F0.015047620912158484
sI77
F0.009709007415057383
sI78
F0.017138218382389995
sI79
F-0.0009762573224149187
sI80
F-0.0027563268592080033
sI81
F-0.00920389677654973
sI82
F-0.004491459031943532
sI83
F-0.005396348605009093
sI84
F0.016469354692274625
sI85
F-0.0025929133969130446
sI86
F0.012123140196439442
sI87
F0.0020715008964207757
sI88
F-0.005820726921174477
sI89
F0.011273289009662348
sI90
F0.019210983231349153
sI91
F-0.01736027133591421
sI92
F-0.013095411900115551
sI93
F-0.0014198894203681087
sI94
F0.003655698058376266
sI95
F0.0020264869893353065
sI96
F0.0061784701893300865
sI97
F-0.012470028624448752
sI98
F-0.008794512312245917
sI99
F-0.0058275808855663734
sI100
F-0.00047966302347098825
sI101
F-0.008300090861248293
sI102
F-0.0011502677301244906
sI103
F0.012998511250298082
sI104
F-0.0016897323505249515
sI105
F0.003967805939247523
sI106
F0.002562995018271952
sI107
F0.03262222579127143
sI108
F0.006702658807447354
sI109
F0.0040746513578207725
sI110
F-0.0057889549683205355
sI111
F0.027063493467129465
sI112
F0.007887498016623947
sI113
F-0.015285796921730816
sI114
F-0.004103244740744334
sI115
F0.0070245444518533245
sI116
F-0.015621857638080138
sI117
F-0.0004845189662822548
sI118
F0.018324167316366786
sI119
F-0.0024607599847420543
sI120
F0.0032767753549930692
sI121
F-2.2168623489807992e-05
sI122
F0.005264729519843587
sI123
F0.006728870682850214
sI124
F0.0037884578558583376
sI125
F0.025234973346453495
sI126
F-0.005138018129167562
sI127
F0.002897404469255618
ssI13
g8
(tRp24
I64
F-0.006304379474305509
sI65
F-0.008907780759205862
sI66
F0.0024568371544645673
sI67
F-0.0013775863289685944
sI68
F0.016846190721455927
sI69
F0.003604817341936192
sI70
F0.004326397720515375
sI71
F-0.00014609187627234876
sI72
F0.0012555511466442373
sI73
F0.0022825772763331665
sI74
F-0.010791291109433233
sI75
F0.009022426744852041
sI76
F0.0020563752557164177
sI77
F-0.0009198199109921526
sI78
F0.004556841708501947
sI79
F-0.011472796864506616
sI80
F-0.001762974942140482
sI81
F0.010999813772159866
sI82
F0.006223058937662805
sI83
F-0.005968873577392927
sI84
F-0.002083068690193898
sI85
F0.012021012275814388
sI86
F-0.014848886989818887
sI87
F-0.0017527958624648965
sI88
F-0.014553397569904524
sI89
F0.0012877477864753936
sI90
F-0.00693840403688574
sI91
F-0.007079376464700664
sI92
F0.01785769693761426
sI93
F-0.01809053332999967
sI94
F0.007314157577151152
sI95
F-0.00627948735271786
sI96
F-0.0024704422226784033
sI97
F0.009141779586257368
sI98
F0.015951555051932565
sI99
F-0.005577465892127375
sI100
F-0.002301611626841673
sI101
F0.0005186770654296733
sI102
F0.019822999890984645
sI103
F-0.007632496990174643
sI104
F0.010164350952631964
sI105
F0.012342162782451042
sI106
F0.002261451183311359
sI107
F-0.0003423753298555134
sI108
F-0.00557360545737525
sI109
F0.008152117329454017
sI110
F0.0035531368147415183
sI111
F0.009566414439855763
sI112
F0.020101366334593935
sI113
F-0.008851903187173485
sI114
F0.01666836888400841
sI115
F-0.0036864404454911587
sI116
F-0.009059844061091747
sI117
F-0.003175968856189008
sI118
F0.001168132751737872
sI119
F0.010693335221685103
sI120
F-0.018360604218583872
sI121
F-0.00024059119003536124
sI122
F-0.002332633916090947
sI123
F-0.004873540586693043
sI124
F-0.014936522528985325
sI125
F0.01443451578003132
sI126
F0.005000730687089292
sI127
F0.008711748865398267
ssI14
g8
(tRp25
I64
F0.0073660557836358635
sI65
F0.01868430848209579
sI66
F-0.008333258999195915
sI67
F0.007728546458363911
sI68
F-0.0025406876421850996
sI69
F-0.020679342060788714
sI70
F-0.012280637700890702
sI71
F0.015751508520104505
sI72
F-0.0009007389792710333
sI73
F-0.004637220629328693
sI74
F0.00965249345993758
sI75
F0.007152837158678124
sI76
F-0.01176639307118897
sI77
F-0.016193836959735572
sI78
F0.012288018547415134
sI79
F-0.020332548504935252
sI80
F-0.005359326072980412
sI81
F-0.004110217677985948
sI82
F-0.0053959764998283396
sI83
F-0.013258602127416367
sI84
F-0.0029810499647763733
sI85
F0.017207530313294497
sI86
F0.010393208577174582
sI87
F-0.0025099534327369354
sI88
F-0.025808997045103425
sI89
F0.0041653327071407625
sI90
F0.020480105550761515
sI91
F-0.002032754681179173
sI92
F-0.007274822488942306
sI93
F0.011130400720680422
sI94
F0.003526539675156917
sI95
F0.013251998908821552
sI96
F0.023775244855253775
sI97
F-0.0006012533128192028
sI98
F-0.010873734280027032
sI99
F0.013373792541907362
sI100
F0.01328510902547642
sI101
F-0.00710709892854204
sI102
F0.013612079088476543
sI103
F0.006540224371321782
sI104
F0.004803715368470076
sI105
F0.012914845596720948
sI106
F-0.00769637012452301
sI107
F-0.0010132349585174755
sI108
F0.008399857378575374
sI109
F0.01967836239513051
sI110
F0.016872881727044653
sI111
F0.005380901658671327
sI112
F0.018696121144570435
sI113
F-0.004596208171586245
sI114
F0.017390006115606968
sI115
F-0.013024040048823703
sI116
F-0.0031498806632334593
sI117
F-0.0013823364647130583
sI118
F0.02432668310610272
sI119
F0.024327513569825127
sI120
F0.0014100681459482168
sI121
F0.030051379746431243
sI122
F0.006313741036605849
sI123
F0.004652257312575176
sI124
F0.00033934518929180685
sI125
F0.014831397360991991
sI126
F0.009626984794238312
sI127
F5.1441185495868283e-05
ssI15
g8
(tRp26
I64
F0.005775871575552623
sI65
F-1.1507746824853141e-05
sI66
F-0.00312112388477607
sI67
F-0.0005909669242637472
sI68
F-0.0013516347400295225
sI69
F-0.0006650386541058882
sI70
F-0.017563995907510874
sI71
F-0.0009687320061936879
sI72
F0.024910926703822386
sI73
F0.0072063977549931095
sI74
F0.006083775202013809
sI75
F-0.009886744161166904
sI76
F-0.00231966733982177
sI77
F-0.00420140855397133
sI78
F0.014447631805199278
sI79
F-0.012325549657832328
sI80
F0.02031542017814391
sI81
F-0.002746466380484827
sI82
F-0.0064092429482000305
sI83
F-0.01050240608455932
sI84
F-0.0035605469231819995
sI85
F0.01910762727974782
sI86
F0.015019773896148671
sI87
F0.0024706030368468754
sI88
F0.0006412822670814847
sI89
F0.014754250589725033
sI90
F-0.005259452812444278
sI91
F-0.0020083508595813183
sI92
F-0.007182010074737062
sI93
F-0.012530249158933431
sI94
F-0.0059665196463507325
sI95
F0.01408997869557247
sI96
F0.005365648466061859
sI97
F0.01740742943828558
sI98
F-0.012787056902168503
sI99
F0.005174481857778233
sI100
F-0.013295373257846403
sI101
F-0.0016947396736489966
sI102
F0.007513929701809592
sI103
F0.008310467248411045
sI104
F-0.01003177235298281
sI105
F0.005653017291244074
sI106
F0.004634970957590731
sI107
F0.009034609967963405
sI108
F-0.00801979905002484
sI109
F0.0074536420436050205
sI110
F0.02559783965846535
sI111
F0.007296767420101886
sI112
F0.01821599967012563
sI113
F-0.017924317935199847
sI114
F0.0005726212146439747
sI115
F-0.016417046834528642
sI116
F-0.00811281427902567
sI117
F-0.013747179985061567
sI118
F0.02027628925332843
sI119
F0.015692679836594156
sI120
F0.010418161770239832
sI121
F-0.0019796253554292677
sI122
F-0.011128506201981666
sI123
F-0.013851379195778848
sI124
F-0.016198404970795336
sI125
F-0.018766069068869264
sI126
F0.0020789421865237854
sI127
F0.024102936291958216
ssI16
g8
(tRp27
I64
F0.0036039603085921243
sI65
F0.0035424504086002664
sI66
F0.0002054467494655137
sI67
F0.02110951735786816
sI68
F-0.001733364974193166
sI69
F0.0009206873999101428
sI70
F-0.03474630097777323
sI71
F0.003344878319475574
sI72
F-0.01652361187782495
sI73
F-0.00019753323180157152
sI74
F-0.012215530941319056
sI75
F-0.009494327457463151
sI76
F-0.008625108349540262
sI77
F0.0014917022671641503
sI78
F0.00486545115826257
sI79
F-0.013977420323751448
sI80
F0.0027305198662029885
sI81
F-0.0018917115446130468
sI82
F-0.01136019429452194
sI83
F0.00924003280415216
sI84
F0.026688808369262525
sI85
F-0.008039619971298696
sI86
F0.0009509408536023621
sI87
F0.010072699570280567
sI88
F-0.0023830973269053342
sI89
F-0.004681994599130046
sI90
F0.01693239123728657
sI91
F0.003805306289681711
sI92
F0.01082467381397822
sI93
F-0.003848549320548736
sI94
F0.010755977392014986
sI95
F0.009983508331559216
sI96
F0.0028802897511272345
sI97
F0.011883526855203719
sI98
F0.01204061820499849
sI99
F0.007680731302686989
sI100
F0.00474137974751408
sI101
F0.014784397635030064
sI102
F-0.00959426929564259
sI103
F0.028500441616954947
sI104
F-0.01311820142352237
sI105
F-0.013367466957693629
sI106
F0.007363401967490013
sI107
F0.003233990691747546
sI108
F-0.014122489673439575
sI109
F-0.006350524726593464
sI110
F-0.002465700145904029
sI111
F0.0004738058687317444
sI112
F-0.007898161436713538
sI113
F-0.00435198739106367
sI114
F-0.002815247035301798
sI115
F0.00034523802697699945
sI116
F-0.0221912719708305
sI117
F-0.008112292856650136
sI118
F-0.003632492182222558
sI119
F-0.0019692164226041303
sI120
F-0.011893610845745044
sI121
F0.007243832023213177
sI122
F0.03567810857291974
sI123
F0.007543174050097688
sI124
F0.008461810313098827
sI125
F-0.0019056137353543423
sI126
F-9.970680839935537e-06
sI127
F0.0010505957432800919
ssI17
g8
(tRp28
I64
F0.007431618239720544
sI65
F0.007922951870282984
sI66
F-0.01833163615071273
sI67
F0.023953900999144268
sI68
F-0.006037779576487839
sI69
F0.01174438264916894
sI70
F-0.006520753875989022
sI71
F0.009395684389772993
sI72
F0.006299613894595166
sI73
F-0.012819303159774887
sI74
F-0.027088607880714804
sI75
F0.017639378277563646
sI76
F-0.009869944073030767
sI77
F0.014667577285189717
sI78
F-0.015321831388571147
sI79
F-0.012775000485070806
sI80
F0.010602055535867372
sI81
F0.007469249364487114
sI82
F-0.015979361303742366
sI83
F-0.017213784637579114
sI84
F0.016338267583209543
sI85
F-0.0010353037688534794
sI86
F0.018449656690560416
sI87
F0.005593263741093455
sI88
F-0.007224060007030676
sI89
F-0.015613611120130858
sI90
F-0.0035743761286046627
sI91
F-0.0032701518393155717
sI92
F-0.002270626128230277
sI93
F0.005738143265370085
sI94
F0.01704397597148045
sI95
F-0.010285864126091174
sI96
F0.0016533520695585365
sI97
F-0.00986946229442474
sI98
F0.003694875793318948
sI99
F0.0011648676684729666
sI100
F0.030279972127946045
sI101
F0.0019234672922493665
sI102
F-0.0010092867678452844
sI103
F0.01481887433733077
sI104
F-0.003251682199182692
sI105
F-0.015876809724351633
sI106
F0.009554834311684388
sI107
F-0.0026316864968884725
sI108
F-0.0005522803654567594
sI109
F0.01791219248409573
sI110
F0.013285676527021024
sI111
F-0.003648108270533228
sI112
F0.01729225323220925
sI113
F0.003292661537012826
sI114
F0.006957507365235581
sI115
F-0.003909172798486352
sI116
F-0.019397083037170377
sI117
F0.007006390681471702
sI118
F0.0046031014915442845
sI119
F-0.007703922120786873
sI120
F0.008785763664940762
sI121
F0.01006819590741182
sI122
F-0.0055379516919428235
sI123
F-0.013209609661657185
sI124
F-0.00930340941881029
sI125
F-0.008150632750395416
sI126
F0.002093256412037878
sI127
F0.01273661434678463
ssI18
g8
(tRp29
I64
F-0.009942972004501586
sI65
F0.004833954338611201
sI66
F0.005851945090241909
sI67
F0.003441927359749261
sI68
F-0.01139754509681045
sI69
F0.021591111071458925
sI70
F0.0028826956059898826
sI71
F-0.0023652253395630247
sI72
F0.01438652833286738
sI73
F0.01102668217133825
sI74
F-0.019959398355943483
sI75
F0.005914844205624678
sI76
F-0.01415480844370971
sI77
F0.004519601752353267
sI78
F0.004453412691514003
sI79
F-0.004082619648642353
sI80
F-0.0021995053197080496
sI81
F-0.0006890430536104827
sI82
F-0.02217872906525539
sI83
F0.001842845662904627
sI84
F-0.01505018512199223
sI85
F-0.011617843410812838
sI86
F0.007233298767201422
sI87
F0.01197074902700287
sI88
F0.0009420984077823058
sI89
F-0.014398037386044105
sI90
F0.013765188864332837
sI91
F-0.002660917530022918
sI92
F-0.005757641966346971
sI93
F-0.0016864446644986601
sI94
F-0.010768979212313429
sI95
F0.0070973526085079
sI96
F0.026305923282539095
sI97
F-0.002094008773869309
sI98
F0.01686537906417025
sI99
F0.005415285918468928
sI100
F0.0020063678037008743
sI101
F0.012632799664784599
sI102
F0.0018665504848491045
sI103
F0.0035118070440445866
sI104
F-0.0033842160157050694
sI105
F-0.005669058324663732
sI106
F0.007883577568457827
sI107
F0.0026975439105825457
sI108
F-0.022446591960480027
sI109
F-0.008493449965987832
sI110
F0.009838253393061798
sI111
F-0.018284855457088744
sI112
F-0.01602662815876835
sI113
F-0.005794305784890106
sI114
F-0.004763821720071105
sI115
F0.002155490766903016
sI116
F-0.009584040756318425
sI117
F0.010948555884192846
sI118
F-0.0006835411498833752
sI119
F-0.0073682030281627805
sI120
F0.0011780857932897355
sI121
F-0.015927773496076353
sI122
F0.015985765837969675
sI123
F0.000562201685454005
sI124
F0.014455479437596916
sI125
F0.00345232151351295
sI126
F0.001986265561958817
sI127
F0.013438929257049672
ssI19
g8
(tRp30
I64
F0.004178130122439317
sI65
F-0.011355800615468271
sI66
F-0.018618494152571885
sI67
F0.005316597934853518
sI68
F-0.001979559078045257
sI69
F0.005462910055894122
sI70
F-0.00999845360804324
sI71
F0.010152826611673969
sI72
F0.005859288704385248
sI73
F-0.00588829661259226
sI74
F-0.0014447344114782833
sI75
F0.003966992449385132
sI76
F-0.003244691804991363
sI77
F-0.0016437575260617018
sI78
F0.00493060041352056
sI79
F-0.008782634834007711
sI80
F-0.004401047397189764
sI81
F-0.005425993264164612
sI82
F-0.0038192329208260184
sI83
F-0.0009116966860122833
sI84
F0.022769266878401594
sI85
F0.024375014285713523
sI86
F0.0007103556719309076
sI87
F-0.001036933156828116
sI88
F0.004608186911600258
sI89
F0.0006746240396215592
sI90
F0.007846213071233774
sI91
F0.007332033414144628
sI92
F-0.016081321619624462
sI93
F0.023497878419353784
sI94
F-0.0003406018160240107
sI95
F-0.010026777767024715
sI96
F0.01057509961880493
sI97
F-0.0157172893543756
sI98
F0.015413449955823853
sI99
F0.006012277782554561
sI100
F0.0012032458607080946
sI101
F-0.0018552436342557097
sI102
F0.000523500510618722
sI103
F-0.017689318819290235
sI104
F-0.005671556733517775
sI105
F0.007757678279940475
sI106
F0.002038062648486345
sI107
F0.003551882843277566
sI108
F-0.008123087596136617
sI109
F0.017855001836854605
sI110
F0.004100164171187464
sI111
F0.006039800424675628
sI112
F0.0005446146911986443
sI113
F-0.014858384240965451
sI114
F-0.0038027327735124915
sI115
F-0.0133594150138995
sI116
F-0.013106046436693598
sI117
F-0.012316197685599942
sI118
F-0.005576755483767051
sI119
F-0.0014949516884105456
sI120
F-0.0030489755037697093
sI121
F0.006850994178758843
sI122
F-0.014566389169675679
sI123
F-0.00469140599614636
sI124
F-0.01200183601804371
sI125
F0.0168088596761605
sI126
F0.022810606534250558
sI127
F0.0015771992429347928
ssI20
g8
(tRp31
I64
F-0.016717313774863705
sI65
F0.00300395296169592
sI66
F-0.01744491413444247
sI67
F0.008714056274747611
sI68
F0.005860742125348322
sI69
F-0.0005589941628631594
sI70
F0.008921773805389707
sI71
F-0.003743343610233114
sI72
F-0.009253449035889127
sI73
F0.007462644723696636
sI74
F-0.009001103547791857
sI75
F-0.0015464245318746056
sI76
F-0.00026372759352644474
sI77
F-0.0002019939781720887
sI78
F0.007521850495628751
sI79
F-0.004888687948443888
sI80
F0.019583066265101617
sI81
F-0.0025852743126717455
sI82
F-0.011168915584653057
sI83
F-0.007667944632160727
sI84
F0.0034243049032839194
sI85
F-0.0054290128755470545
sI86
F0.01403674563094257
sI87
F0.011417488910013096
sI88
F-0.004101061180198668
sI89
F0.018397188445423308
sI90
F0.005763136993226049
sI91
F0.00390906018173318
sI92
F0.009581153676540275
sI93
F0.01040236915538703
sI94
F0.00528036835069702
sI95
F0.010997082965697362
sI96
F0.003624279688527305
sI97
F0.013423909159478794
sI98
F-0.0033146374563919143
sI99
F0.0066482209538531655
sI100
F-0.0074982369437076694
sI101
F0.016312097167372024
sI102
F-0.00019245126284333456
sI103
F0.010382222286741108
sI104
F-0.010074307247676937
sI105
F0.0091799958401951
sI106
F0.015684404965066394
sI107
F0.0023506124667676195
sI108
F-0.00351192271415855
sI109
F-0.007770172785356614
sI110
F-0.0025159146269470205
sI111
F0.0018102610301424442
sI112
F0.0018163416331454742
sI113
F-0.005580412745814164
sI114
F0.006756900467754655
sI115
F-0.005228595647238401
sI116
F-0.001310977627187127
sI117
F-0.0023472925798068297
sI118
F0.0013222464907211534
sI119
F0.011767584981199392
sI120
F0.020269485870885298
sI121
F0.0009652792976622633
sI122
F0.019629199465079582
sI123
F0.023188444135767775
sI124
F0.003412276204078382
sI125
F-0.006333492270462719
sI126
F0.0036675695905769193
sI127
F0.01150096003374478
ssI21
g8
(tRp32
I64
F0.011918909243154429
sI65
F0.0048068568908791395
sI66
F0.0028574159005843197
sI67
F-0.00813436810822255
sI68
F-0.007092722525583993
sI69
F-0.005516279601142405
sI70
F-0.008634566690118169
sI71
F0.016923970118490034
sI72
F0.017144523774888846
sI73
F0.0098613684925731
sI74
F-0.004578808287878297
sI75
F-0.014740386301513586
sI76
F-0.01778585498262495
sI77
F0.0010087601655036488
sI78
F0.016355965203661577
sI79
F-0.012770193281965268
sI80
F0.006879193262959086
sI81
F0.0154282612493178
sI82
F-0.00013959508597901143
sI83
F0.008060328455459911
sI84
F-0.007530572149463252
sI85
F0.028441401013577266
sI86
F0.014713842310058733
sI87
F0.01863793079641273
sI88
F-0.013650966506372644
sI89
F0.019907791212731143
sI90
F-0.00017617563127576749
sI91
F-0.007122058408055332
sI92
F-0.0015619241600886848
sI93
F0.006002161027693271
sI94
F0.001303322987140479
sI95
F0.003570102207137707
sI96
F0.0007786743085482154
sI97
F-0.0031384494835408447
sI98
F-0.009400943731959146
sI99
F0.0053145325554979405
sI100
F0.013813170805323946
sI101
F-0.00841827624797432
sI102
F0.018957745395748474
sI103
F-0.0007362831289704877
sI104
F0.004750611879531431
sI105
F0.007641765819085848
sI106
F0.011971006688018444
sI107
F0.0196281797810432
sI108
F-0.010021325570019233
sI109
F0.007075819675084478
sI110
F-0.0016797445201928265
sI111
F0.015497064191321373
sI112
F-0.00022194266310476742
sI113
F0.000725559224866549
sI114
F0.0015065637675301853
sI115
F-0.010694081137885822
sI116
F0.00793519282721575
sI117
F0.007235253968333024
sI118
F0.0041932862963372725
sI119
F0.010855786592476192
sI120
F-0.0007796551539647776
sI121
F-0.005819495991224671
sI122
F0.012518880328184977
sI123
F-0.01588783904790174
sI124
F-0.015678908751582173
sI125
F0.002742261815033315
sI126
F-0.0014934132215662366
sI127
F0.00819792396053129
ssI22
g8
(tRp33
I64
F-0.008135776312251593
sI65
F0.0027062876183226708
sI66
F0.0005038150802992606
sI67
F0.006955548408100658
sI68
F-0.00019083831434454744
sI69
F0.0017830352133815367
sI70
F0.00792317886141904
sI71
F-0.0032270914916699366
sI72
F0.017537071780465863
sI73
F-0.004422802144261532
sI74
F0.0017490129355260395
sI75
F0.014588423986699375
sI76
F0.0011896990336962056
sI77
F-0.012479091596601443
sI78
F-0.004608633552019161
sI79
F-0.0017780699197631148
sI80
F0.007330719882616209
sI81
F0.016844234859359396
sI82
F-0.0016846505384558008
sI83
F-0.012855804467572337
sI84
F0.004207145709380562
sI85
F0.007223767896135483
sI86
F0.0023510433438346987
sI87
F-0.01705298763822342
sI88
F-0.01439994286452991
sI89
F-0.006594715972493471
sI90
F-0.0007463222923007561
sI91
F-0.003891732156241509
sI92
F-0.003555444281914101
sI93
F-0.01402155279629682
sI94
F-0.008683074729718913
sI95
F0.022750709722189767
sI96
F-0.0076125254858707084
sI97
F0.001264028990208953
sI98
F-0.0031770985350282215
sI99
F-0.00777340133039932
sI100
F0.0036102287955901563
sI101
F0.008679012797892115
sI102
F0.006295750066346746
sI103
F0.03752034522927963
sI104
F-0.009748696704153365
sI105
F0.0037374463739928386
sI106
F0.0009572141946569724
sI107
F0.00867056957408036
sI108
F0.021301293111691218
sI109
F-0.012037990860655786
sI110
F0.006005114177806844
sI111
F0.004944226439055644
sI112
F0.007349396153213011
sI113
F-0.014997303218114533
sI114
F-0.007431004782702194
sI115
F-0.0033954045930795923
sI116
F-0.021655931809382425
sI117
F0.008713701379365495
sI118
F0.00674915564444106
sI119
F0.015229339938758388
sI120
F0.010811008898465079
sI121
F0.0009949361323120284
sI122
F-0.005493293418945571
sI123
F0.0030462330747795183
sI124
F-0.004313078848775488
sI125
F0.0009484137263677143
sI126
F0.006837397776107268
sI127
F0.0004290464588712773
ssI23
g8
(tRp34
I64
F0.001285284432611885
sI65
F0.013576531676525712
sI66
F-0.0076412998360556785
sI67
F0.0007551757765357357
sI68
F0.008845308236079081
sI69
F-0.010772109213652495
sI70
F-0.008689758411426312
sI71
F0.011439314519651148
sI72
F0.0054426224314049094
sI73
F0.007803029614037455
sI74
F0.0013470734644986085
sI75
F-0.004156758781471495
sI76
F-0.008738861742056408
sI77
F-0.011904590900046003
sI78
F0.01662936127151012
sI79
F-0.012503305510082817
sI80
F0.007904866204242215
sI81
F-0.0014884207282788967
sI82
F-0.00665246371782215
sI83
F-0.001600494484339878
sI84
F-0.012756871095494882
sI85
F0.02301258212804556
sI86
F0.005282170358477532
sI87
F0.001768287969164146
sI88
F-0.0072921383949592035
sI89
F0.014806412779815094
sI90
F-0.0014593561443095278
sI91
F0.0016229786749094718
sI92
F-0.0007059722145130931
sI93
F-0.011733435733332128
sI94
F0.014714836406595029
sI95
F0.01941870438641617
sI96
F-0.008858928629594717
sI97
F0.010222285133716686
sI98
F-0.005142801343154199
sI99
F0.003520890084037031
sI100
F-0.015095941959585808
sI101
F-0.008976920702236612
sI102
F0.016363499971638072
sI103
F0.011629248377288582
sI104
F0.0012533875937205446
sI105
F0.0035682913374748813
sI106
F-0.02105539922808068
sI107
F-0.001131297368832814
sI108
F0.009276772895290528
sI109
F0.011419069779139292
sI110
F-0.010922248201433251
sI111
F0.017818760010742157
sI112
F0.023939923629666564
sI113
F-0.017973646954602226
sI114
F0.00740166442531301
sI115
F-0.0017417361302871197
sI116
F-0.013103435686191564
sI117
F-0.017478352443482628
sI118
F0.015657124022443538
sI119
F0.022805092932736998
sI120
F0.008492224711485629
sI121
F0.020452733578814865
sI122
F0.002601258548104387
sI123
F0.01586722091583799
sI124
F-0.027345424162172855
sI125
F0.0033265122851006573
sI126
F0.004502686011276739
sI127
F0.010596228028639822
ssI24
g8
(tRp35
I64
F0.0022165340975487877
sI65
F0.021966217376476936
sI66
F0.015208276430819954
sI67
F-0.0006058599864609841
sI68
F-0.014236218383610803
sI69
F0.004361904779742601
sI70
F0.00425561880010256
sI71
F0.004310505010119685
sI72
F-0.004481382886813875
sI73
F-0.005150376759895885
sI74
F-0.006440261129142429
sI75
F0.015878493131924767
sI76
F0.004064364000485209
sI77
F-0.003903998553745388
sI78
F-0.0069725171026236024
sI79
F-0.018389117552350565
sI80
F0.01657650037347737
sI81
F0.014238266728735287
sI82
F0.001490169992933004
sI83
F0.002656258858506341
sI84
F0.012253678678636477
sI85
F-0.006992541495644449
sI86
F0.015106074935399757
sI87
F0.010105066159339295
sI88
F0.018380200069547437
sI89
F-0.006811872366345576
sI90
F0.005153327811429311
sI91
F0.007829738724811396
sI92
F0.0026490597632761862
sI93
F0.004196903868545005
sI94
F0.022737237344378866
sI95
F-0.01994336322394734
sI96
F0.003357538514953914
sI97
F0.030230346437302855
sI98
F-0.0008570010115936537
sI99
F0.017811963254268592
sI100
F-0.004092391520494527
sI101
F0.010782380628948382
sI102
F0.009653958142978198
sI103
F-0.00612659222167983
sI104
F0.0038202587844840753
sI105
F-0.008637291546515036
sI106
F0.013169472188001767
sI107
F0.001884404946791659
sI108
F-0.018765138994824602
sI109
F-0.012660255475414633
sI110
F0.012240150993409063
sI111
F-0.008832247872726826
sI112
F-0.015010758938893354
sI113
F0.01997702222594163
sI114
F0.007982874693499483
sI115
F0.010598177587287256
sI116
F-0.010746723462293314
sI117
F0.014662802965898317
sI118
F0.004069765314431676
sI119
F-0.005765676208982352
sI120
F-0.00034212560039415
sI121
F0.005868683728026522
sI122
F0.0077078127811911175
sI123
F-0.00979665911334456
sI124
F0.01160624283393162
sI125
F-0.003320524121646448
sI126
F-0.004416420027146685
sI127
F0.014935054728349413
ssI25
g8
(tRp36
I64
F-0.022043532639107875
sI65
F0.012375714456358135
sI66
F0.0007673792066889305
sI67
F-0.0012459417355576308
sI68
F-0.01378379456764505
sI69
F0.0143006667774896
sI70
F-0.005796119587137395
sI71
F-0.012714065685783671
sI72
F-0.004158761888220224
sI73
F-0.004004028878136587
sI74
F-0.0020840918924675536
sI75
F0.014549746670189642
sI76
F-0.0022255817317502983
sI77
F0.0030120997114193742
sI78
F-0.01652699082869863
sI79
F0.009377451835500173
sI80
F0.003075437217596904
sI81
F0.01675927607256994
sI82
F-0.0068021640438411385
sI83
F0.0106315849571158
sI84
F-0.002186723194082082
sI85
F-0.00264719636474332
sI86
F0.008907122653841602
sI87
F-0.00271820247859986
sI88
F0.014565648059117465
sI89
F-0.013019987958748848
sI90
F-0.01935852546917975
sI91
F-0.00196116040947861
sI92
F-0.003953147152434642
sI93
F0.006675868766025892
sI94
F0.004009525679475611
sI95
F-0.013574674181122516
sI96
F0.011886371361727325
sI97
F0.013590234750959667
sI98
F0.005683802632613554
sI99
F0.0017801337934776045
sI100
F0.005003393382899667
sI101
F0.011228468783118646
sI102
F-0.010181205768031883
sI103
F0.014612593047136711
sI104
F-0.006381056705451056
sI105
F-0.003906278002790319
sI106
F0.011240759728334758
sI107
F0.007211521737606219
sI108
F-0.010369507276664936
sI109
F0.0033477812887814672
sI110
F0.007504414250831634
sI111
F0.012163216416562444
sI112
F-0.014977331321348654
sI113
F-0.0020039977832443856
sI114
F-0.007709559294614282
sI115
F0.01903878803081235
sI116
F-0.0279379910150364
sI117
F-0.005985376682952584
sI118
F-0.012456662891741204
sI119
F-0.013498400092620166
sI120
F-0.003206125569428827
sI121
F-0.013776997962309254
sI122
F0.008356200303456776
sI123
F-0.0006901517753112392
sI124
F0.005953825909207207
sI125
F0.019235646667600387
sI126
F-0.0011173532781051203
sI127
F-0.007836982933265886
ssI26
g8
(tRp37
I64
F-0.016692622180637735
sI65
F0.014529144843347492
sI66
F-0.001736722197007195
sI67
F0.0033723269619916766
sI68
F-0.0010766222947311526
sI69
F-0.002424043397452386
sI70
F-0.0022057457037399364
sI71
F0.01979391930900629
sI72
F-0.016302496647596167
sI73
F0.001558303147083086
sI74
F0.003744507395754007
sI75
F-0.00632945753983777
sI76
F-0.0021731358445754613
sI77
F0.010235773191852428
sI78
F0.004307532538989717
sI79
F-0.00545169808578683
sI80
F0.005142694513613805
sI81
F0.0020405752889776367
sI82
F-0.002684135440605275
sI83
F-0.008184386358907923
sI84
F0.014435736355166515
sI85
F-0.016399713214522226
sI86
F0.004350030490132719
sI87
F-0.010907749081098782
sI88
F-0.005834341079059547
sI89
F0.003232738839722763
sI90
F0.013119570379222801
sI91
F0.01217412540350085
sI92
F-0.007491954836542683
sI93
F0.0016424465984287914
sI94
F0.01028179806871174
sI95
F0.001389549020537195
sI96
F-0.00239228544699518
sI97
F0.010448410424765874
sI98
F-0.015096302529036763
sI99
F0.012460224113390417
sI100
F-0.011359344657693185
sI101
F0.022416906359308198
sI102
F-0.015124838590324432
sI103
F0.012572835933560629
sI104
F-0.014314246081424007
sI105
F-0.018120431000813456
sI106
F0.012171595485758836
sI107
F0.0017198284995977823
sI108
F0.0051379526800643645
sI109
F0.009745338266929594
sI110
F0.01888563915990648
sI111
F0.0007071372462902325
sI112
F0.005776363265927131
sI113
F-0.0023448300295224765
sI114
F-0.004460951111466717
sI115
F0.010397598846757934
sI116
F0.0036287573730415636
sI117
F-0.0005108408271417818
sI118
F-0.020953346039470508
sI119
F-0.0081036969427885
sI120
F0.0164463476344783
sI121
F0.0017968437306487325
sI122
F0.0040752273630618625
sI123
F-0.018980329738172846
sI124
F0.008677496918362252
sI125
F0.012558149657623413
sI126
F-0.0047470169634992185
sI127
F-0.002904984055248276
ssI27
g8
(tRp38
I64
F-0.0011781526068753508
sI65
F6.994340024221843e-05
sI66
F0.0072811530986845695
sI67
F-0.008940176176326625
sI68
F-0.007067326520483594
sI69
F0.017985866285529156
sI70
F-0.013308875686494456
sI71
F0.004905728966287842
sI72
F0.00040199568937179515
sI73
F-0.005404427353391441
sI74
F-0.013588896426299813
sI75
F-0.009934375018916556
sI76
F-0.005026906128793349
sI77
F0.011332734754799815
sI78
F0.006515453152862124
sI79
F-0.004909537986657444
sI80
F-0.0030833411720977404
sI81
F0.0032258119426927375
sI82
F-0.00397836332978223
sI83
F-0.006988590544615605
sI84
F-0.0010484251132397854
sI85
F-0.00402924692402641
sI86
F0.008337690133920326
sI87
F-0.0029534542932967726
sI88
F-0.012750446905691692
sI89
F-0.005945269194176957
sI90
F0.011365157470589372
sI91
F-0.019076010656008998
sI92
F0.004881312034662943
sI93
F0.004301566944466054
sI94
F-0.013524459861997757
sI95
F0.0002597433041573411
sI96
F0.027135949780580055
sI97
F0.006677993771660179
sI98
F0.012078784152947204
sI99
F0.005060871498901125
sI100
F0.01070571221515951
sI101
F0.0065208854846510456
sI102
F0.008583336585571798
sI103
F0.0021954943405122604
sI104
F-0.009394186836576234
sI105
F0.0036967704068268993
sI106
F-0.00922781149910656
sI107
F0.028698333418996205
sI108
F-0.014356093124661806
sI109
F-0.003951406084397989
sI110
F0.006758330344993926
sI111
F-0.01280702190189483
sI112
F0.01839306148485131
sI113
F0.008907910693174207
sI114
F0.01035500811106577
sI115
F0.0016512700848994096
sI116
F-0.0021427657793850322
sI117
F-0.006271831322884503
sI118
F0.0015706704529061595
sI119
F-0.0134756901657812
sI120
F-0.014348769770280085
sI121
F-0.018875603029326813
sI122
F-0.0015329382580291533
sI123
F0.003083367902542149
sI124
F-0.0072637757272957446
sI125
F-0.00020998492986643762
sI126
F0.0009165894623656669
sI127
F0.00498460698393581
ssI28
g8
(tRp39
I64
F0.0033552984247263826
sI65
F0.01572732252062234
sI66
F-0.0027010342164785046
sI67
F0.007926474099742627
sI68
F-0.00771369631712692
sI69
F0.0034343202103707775
sI70
F-0.01781500800198714
sI71
F-0.0014511984671833104
sI72
F-0.005226186488740328
sI73
F0.0067720096552855834
sI74
F0.0047584370555971995
sI75
F-0.010347258971025943
sI76
F-0.0025654812629376926
sI77
F0.002172746284352764
sI78
F-0.0007335759127149267
sI79
F-0.0031560432272068704
sI80
F-0.01731711430421655
sI81
F0.005658105232819367
sI82
F-0.008353228909895576
sI83
F-0.002934423281362541
sI84
F-0.007314468303326815
sI85
F0.017243535770089215
sI86
F0.0010293378596898015
sI87
F0.014999850612893146
sI88
F0.007024010323203416
sI89
F0.0023169303550633355
sI90
F0.01043179438734697
sI91
F0.001936663061075891
sI92
F0.011796378110567758
sI93
F0.0005208904818258144
sI94
F0.009385162241883297
sI95
F-0.006366236119181224
sI96
F-0.009384675828120576
sI97
F0.008262432317583281
sI98
F0.006900239169689674
sI99
F0.005792842260371889
sI100
F0.005507916978432035
sI101
F0.0022373864552413946
sI102
F0.004851260733134015
sI103
F-0.010842143986014508
sI104
F0.0033241652982092837
sI105
F0.0178602802259329
sI106
F0.006569801415237373
sI107
F0.0077062502499395565
sI108
F0.0077320014934544705
sI109
F0.007005813958603631
sI110
F0.010129316335915335
sI111
F0.00978015110065287
sI112
F0.01684126942411965
sI113
F-0.003164850424957913
sI114
F-0.002701344051747761
sI115
F-0.011100196937560437
sI116
F-0.005373221836047809
sI117
F-0.0022955136128554434
sI118
F0.011593177920980862
sI119
F0.005026401495275666
sI120
F-0.0072085399553999405
sI121
F0.01521385062114565
sI122
F-0.006124033221455558
sI123
F0.004826708554196102
sI124
F-0.014617770676132222
sI125
F-0.013906089346733505
sI126
F0.0055930284420515515
sI127
F0.011407125798256987
ssI29
g8
(tRp40
I64
F-0.01346482505979534
sI65
F-0.0030139274154361703
sI66
F-0.0040437537766302165
sI67
F-0.010810844800273707
sI68
F-0.0070226331116188135
sI69
F-0.014468503970503359
sI70
F0.008587439556032887
sI71
F0.0009145099355670417
sI72
F0.015463095027134372
sI73
F0.00843212911423816
sI74
F0.010672392737006554
sI75
F-0.003112508163611953
sI76
F-0.005664888029604763
sI77
F-0.012144770390113281
sI78
F-0.0050280024356900484
sI79
F-0.009848718998479146
sI80
F0.0014711413632816485
sI81
F-0.015061869105621918
sI82
F0.0033710474044819964
sI83
F-0.012945508987691146
sI84
F0.003627865187147299
sI85
F0.011779609857066971
sI86
F0.00538631562936005
sI87
F0.008591279703688498
sI88
F-0.0017464052808217046
sI89
F0.011548690371450955
sI90
F-0.014721583671277485
sI91
F0.0018649469188987665
sI92
F0.019569135359384
sI93
F-0.006228698337542114
sI94
F-0.0021022730484519616
sI95
F0.010068641041722419
sI96
F-0.01968248192844816
sI97
F0.0004287505336418327
sI98
F-0.020927747214366858
sI99
F-0.0072272558870410735
sI100
F0.015272987379216276
sI101
F-0.018007070657514366
sI102
F0.0065613107507711535
sI103
F0.021371381336261517
sI104
F-0.0010105642249577161
sI105
F0.014042036733845928
sI106
F-0.014022726636817006
sI107
F0.013374550635870395
sI108
F-0.0007494660831387026
sI109
F0.009418403097047345
sI110
F-0.005676461664988397
sI111
F-0.00015861306447187475
sI112
F-0.00659365654099775
sI113
F-0.019101866758713094
sI114
F-0.011912535254287752
sI115
F-0.0012149055678312992
sI116
F-0.011039709063157188
sI117
F-0.015829598323831847
sI118
F0.01751620965613528
sI119
F0.018281344025456062
sI120
F-0.0076687096797373126
sI121
F0.020346249501582852
sI122
F0.0027565131358275883
sI123
F0.002971765685316161
sI124
F0.0038906317239862085
sI125
F-0.003926438393107938
sI126
F-0.0008234856324632477
sI127
F-0.012225145260298876
ssI30
g8
(tRp41
I64
F-0.0026219760671976904
sI65
F0.012328793016192522
sI66
F0.021318698124519135
sI67
F0.002082704142573217
sI68
F0.020466101548388006
sI69
F0.004901262017397246
sI70
F-0.008425665902914506
sI71
F-0.0037485045852958276
sI72
F0.009541881167652802
sI73
F-0.0015685460860672983
sI74
F-0.0011035917198730881
sI75
F0.0005441441792259604
sI76
F0.02498354893805589
sI77
F0.008269424293407778
sI78
F0.013408147694624787
sI79
F-0.011096121352614627
sI80
F0.008820569621765762
sI81
F0.022434521242111392
sI82
F0.014305744942610027
sI83
F-0.0038432799920854756
sI84
F0.003486706302983402
sI85
F-0.00028155488733935986
sI86
F0.005035453022050185
sI87
F-0.018408429837924623
sI88
F-0.0011152862139331963
sI89
F-0.014342205712669103
sI90
F-0.0043044849536377815
sI91
F0.025059975374867312
sI92
F0.00021151460543657468
sI93
F-0.01881948350686925
sI94
F0.008768945226428194
sI95
F0.008461262739324061
sI96
F0.00970283551427718
sI97
F0.0001432839168003588
sI98
F-0.0067677019275536624
sI99
F-0.00031712404982680876
sI100
F0.00631295288057525
sI101
F-0.010146974013344655
sI102
F-0.006372677604892526
sI103
F0.008180351532840427
sI104
F0.002838444582866625
sI105
F-0.0065995928351531025
sI106
F-0.01989463714213811
sI107
F0.008645814792100153
sI108
F-0.013298529196589418
sI109
F0.008082968853672571
sI110
F0.007774101766014133
sI111
F0.019901978300577487
sI112
F0.0080796164023311
sI113
F-0.004436448929370176
sI114
F-0.013474045833267237
sI115
F-0.0117883826299715
sI116
F-0.01932969125650953
sI117
F-0.0027127434971319334
sI118
F0.02361017081832325
sI119
F-0.0011610607871856975
sI120
F-0.004674433986708522
sI121
F0.0014987657392940283
sI122
F-0.014512458369478893
sI123
F-0.009323053831704706
sI124
F-0.009486397284258562
sI125
F0.004032984828228335
sI126
F0.013140881256330682
sI127
F-0.0005003600114130501
ssI31
g8
(tRp42
I64
F0.008175979958039262
sI65
F0.002024377580156863
sI66
F0.009198251539192718
sI67
F-0.01567445497682021
sI68
F-2.4230224194214334e-05
sI69
F0.0008820402841296128
sI70
F-0.02215502293527672
sI71
F-0.010336710069183696
sI72
F0.0002222325674688221
sI73
F0.013430111764888791
sI74
F0.02383706765700589
sI75
F0.0003234005266100689
sI76
F0.0073067459426175325
sI77
F-0.014924188010428472
sI78
F0.024285906072859794
sI79
F-0.014328503543864599
sI80
F-0.0006873410202777664
sI81
F0.014918539614594955
sI82
F0.023338363743581617
sI83
F-0.011344023278964513
sI84
F-0.010453919700394883
sI85
F0.010775286661660713
sI86
F0.008526791573508446
sI87
F-0.005724504015650682
sI88
F-0.006572969600907236
sI89
F0.00036834490539692784
sI90
F0.00610533580866538
sI91
F0.006658817445485257
sI92
F0.0012990115208064933
sI93
F-0.01982069974143183
sI94
F-0.00030989320564765586
sI95
F0.006562127288903869
sI96
F0.00551041705127419
sI97
F0.0004189937104789874
sI98
F-0.011147715562847974
sI99
F-0.015183174595765037
sI100
F-0.004376989342722003
sI101
F0.005056156404205829
sI102
F0.007652732945472273
sI103
F-0.004231361480203913
sI104
F0.012314364050066844
sI105
F0.00557658681153559
sI106
F0.0039878147067733275
sI107
F0.0014469718842308405
sI108
F0.014346608014572949
sI109
F-0.00022940200525447472
sI110
F-0.006716415219362949
sI111
F-0.010720099687855611
sI112
F0.003300745672060346
sI113
F-0.009764576333044802
sI114
F0.023202033420799295
sI115
F-0.02233526588274779
sI116
F-0.004879320011021462
sI117
F0.0019198471597100604
sI118
F-0.008253107770474914
sI119
F0.018806758880094393
sI120
F0.00827520783071585
sI121
F0.005842269472620566
sI122
F-0.004786899691639721
sI123
F0.0035436042168192393
sI124
F0.002083474193237802
sI125
F0.009628177056575283
sI126
F0.011655519820532687
sI127
F0.017591106391833235
ssI32
g8
(tRp43
I64
F-0.008066801755669064
sI65
F0.005097678295578605
sI66
F0.002176254599452822
sI67
F0.019461923779605077
sI68
F-0.0051270690171584905
sI69
F-0.0017289838158841206
sI70
F-0.012779417546462207
sI71
F-0.0004773255973860528
sI72
F-0.009178017061764365
sI73
F-0.005637640553947248
sI74
F-0.009538806391707632
sI75
F-0.005992718805497763
sI76
F-0.005457526611837824
sI77
F0.004707361908388542
sI78
F0.011276087489350918
sI79
F-0.006477942011278956
sI80
F-0.010426971782375527
sI81
F-0.0022439375161933963
sI82
F-0.019819978955425983
sI83
F-0.02552832888682025
sI84
F0.013723697326840353
sI85
F-0.004134327416578104
sI86
F0.01592024181483942
sI87
F0.003182272975890068
sI88
F0.008807320671494728
sI89
F-0.021616598869535993
sI90
F-0.0058145822984760655
sI91
F-0.00599424675113564
sI92
F-0.002749420360337981
sI93
F0.002517931829831115
sI94
F0.0109162430370868
sI95
F0.0025670423868698377
sI96
F6.06377596219059e-05
sI97
F-0.00877923189187007
sI98
F0.014921690491267852
sI99
F-0.015301451656794359
sI100
F-0.0016043489528954603
sI101
F0.011585792273355464
sI102
F-0.0188673432851728
sI103
F0.015087447815030295
sI104
F-0.004435590674574422
sI105
F-0.024593862622680672
sI106
F0.009112628774861522
sI107
F-0.010239886914643653
sI108
F-0.006378396647245912
sI109
F-0.004937598029812063
sI110
F-0.00017671345887007752
sI111
F-0.023057302574844486
sI112
F-0.019675515033293862
sI113
F0.010136543698458692
sI114
F0.0001910868383859147
sI115
F0.026130881328603993
sI116
F0.007136956439307937
sI117
F0.013476244998088013
sI118
F-0.005205541571853919
sI119
F-0.002441463144036553
sI120
F0.008577938878792692
sI121
F-0.01227044127627709
sI122
F-0.0025756227443923083
sI123
F-0.010457008245243286
sI124
F-0.007759732559119136
sI125
F0.007571903536605828
sI126
F0.01333832055859466
sI127
F0.015121151094293685
ssI33
g8
(tRp44
I64
F0.00789262562601344
sI65
F0.00133772884243445
sI66
F-0.003813788179828066
sI67
F0.007599240089596524
sI68
F0.015493724255001883
sI69
F-0.00014445804664465453
sI70
F-0.010694872476655955
sI71
F-0.007095880933809604
sI72
F0.002925487128606745
sI73
F-0.0009940469936675184
sI74
F-0.01055659440066226
sI75
F-0.022193640150615934
sI76
F-0.007719364825523342
sI77
F0.010959672372677223
sI78
F-0.002802242240493978
sI79
F-0.0003116096734696734
sI80
F-0.00612921966615173
sI81
F-0.003720579839086343
sI82
F-0.001162363979842793
sI83
F0.01831052032820472
sI84
F-0.009121679890503366
sI85
F0.009768686988256925
sI86
F-0.0012120981051791859
sI87
F0.02500696771852728
sI88
F0.009236207456909335
sI89
F0.004915881788211994
sI90
F-0.013520704257690523
sI91
F-0.00995165867633025
sI92
F0.00513423519340702
sI93
F0.01106806328812397
sI94
F0.003048383908846319
sI95
F-0.0049818071397794645
sI96
F0.01497334663280417
sI97
F0.0015542625581312355
sI98
F-0.016694438664839228
sI99
F0.017845524595736323
sI100
F0.0075822334236766474
sI101
F-0.004545285943403302
sI102
F-0.003072237372058516
sI103
F0.011764146663805023
sI104
F-0.0017206768423481112
sI105
F-0.008816907118923982
sI106
F0.006713586693574534
sI107
F-0.020460041277132825
sI108
F-0.003590630987038114
sI109
F-0.012951383216900826
sI110
F0.014757264914097236
sI111
F-0.008641021931413157
sI112
F0.0013601017010609286
sI113
F0.02421669747114383
sI114
F0.01496294495664748
sI115
F-0.011573553489623543
sI116
F-0.0029563624005757715
sI117
F0.015327977167636618
sI118
F0.0011237270823112131
sI119
F0.007123026325166318
sI120
F-0.004870818470259381
sI121
F-0.002501354355610874
sI122
F0.010394971534896297
sI123
F0.006354383155073192
sI124
F0.01264568027556589
sI125
F0.005791868029357678
sI126
F-0.0004467888023769748
sI127
F0.009111300160600872
ssI34
g8
(tRp45
I64
F-0.002466329911389756
sI65
F-0.0006447494750909499
sI66
F0.01709635784280269
sI67
F0.016434535880914865
sI68
F-0.0004987352205656928
sI69
F-0.0032386934308846205
sI70
F0.003811474007971976
sI71
F0.005191562383169541
sI72
F-0.016344559341675332
sI73
F-0.011616447356274047
sI74
F-0.0005186392560819288
sI75
F0.0014856152755469264
sI76
F0.0026136953867157984
sI77
F0.026010918570702004
sI78
F-0.014990428070817984
sI79
F-0.002649345641231541
sI80
F0.011891593504199315
sI81
F0.003303645593480701
sI82
F-0.007019381684858625
sI83
F0.010291112109361998
sI84
F0.005165571900122281
sI85
F-0.008777313793298472
sI86
F0.00450004092197798
sI87
F0.005746734691316951
sI88
F0.0012114803573071394
sI89
F-0.004798555958134464
sI90
F0.020073104922860397
sI91
F0.007113528116104982
sI92
F-0.0016146050419124651
sI93
F-0.0014033299756330306
sI94
F0.009436956007170783
sI95
F-0.016356859084063376
sI96
F-0.007254520049146731
sI97
F0.002947853582488702
sI98
F0.02348021774254081
sI99
F-0.014252689715497887
sI100
F-0.00955317805015352
sI101
F0.0007784476461736499
sI102
F-0.012839131629737044
sI103
F-0.009930278776180619
sI104
F-0.0015311727288149907
sI105
F0.002640992541367974
sI106
F0.007194979004878974
sI107
F0.0034924354559377857
sI108
F0.007391897050235624
sI109
F-0.006551168743937419
sI110
F0.013008550043335086
sI111
F8.563683779862989e-05
sI112
F-0.006091727101908405
sI113
F0.01595838218995532
sI114
F-0.004678103481224707
sI115
F0.019478193388922385
sI116
F0.005896553221248867
sI117
F0.011819561923424995
sI118
F-0.005023600840613081
sI119
F0.007460811691355516
sI120
F0.008064140765941774
sI121
F-0.011060028325888855
sI122
F-0.004980698910363845
sI123
F-0.013051636092097332
sI124
F-0.006523445148229698
sI125
F0.006929884172928432
sI126
F0.007175709869181687
sI127
F0.024764302130444404
ssI35
g8
(tRp46
I64
F-0.015660130399472758
sI65
F-0.0057981667240629906
sI66
F0.004724908487787483
sI67
F0.0048585520491614236
sI68
F-0.001258123038089067
sI69
F0.005668317272522189
sI70
F0.017390272903601733
sI71
F-0.008963260036355366
sI72
F-0.004659180292627707
sI73
F-0.0038200694322997305
sI74
F0.0012005228177434193
sI75
F0.01636875593207183
sI76
F-0.007391815978006277
sI77
F-0.009093369110224684
sI78
F-0.013029444983509168
sI79
F-0.0020836858816678785
sI80
F0.02124599196593341
sI81
F-0.008364228234620045
sI82
F0.00026009770595364373
sI83
F-0.00614655887789891
sI84
F0.0026110536146609106
sI85
F-0.019878575887771786
sI86
F0.001299804195197739
sI87
F0.003125780762584017
sI88
F0.006708992920544766
sI89
F-0.006146855940399242
sI90
F0.005662780967783855
sI91
F-0.0010928782157360803
sI92
F-0.0020193064217708936
sI93
F0.021287915802169544
sI94
F-0.0023177795013392
sI95
F-0.00113229101188041
sI96
F0.014096250621071407
sI97
F0.0037902914631004784
sI98
F-0.006310568853370401
sI99
F0.016926997686271945
sI100
F-0.002267514109862128
sI101
F0.007149813391893588
sI102
F-0.013028889825311446
sI103
F0.009133083916886551
sI104
F0.0009703244854520056
sI105
F-0.0028663614710595143
sI106
F0.0021846948640686604
sI107
F0.012529338853492398
sI108
F0.008950255483904152
sI109
F-0.017393660600765998
sI110
F-0.009246605889617825
sI111
F-0.0077166490085607085
sI112
F-0.012904087234574133
sI113
F0.006573616290059148
sI114
F0.013850517489613415
sI115
F-0.007909986766946696
sI116
F-0.0009697030557807619
sI117
F0.0025234156220752834
sI118
F-0.009431402463076718
sI119
F-0.005564620202440994
sI120
F0.010594705241008038
sI121
F-0.006405481744673753
sI122
F0.01732893607860905
sI123
F-0.011965754756964308
sI124
F0.024089384765906628
sI125
F0.0021312750744308362
sI126
F0.0040126876279048965
sI127
F0.004974917430214477
ssI36
g8
(tRp47
I64
F-0.004440453574910382
sI65
F0.012162941473376496
sI66
F-0.005619461430272187
sI67
F-0.014517019130069034
sI68
F0.011829991729116926
sI69
F0.0042286731849128945
sI70
F0.014199803478656705
sI71
F-0.0029057863027592556
sI72
F-0.00042690345603456603
sI73
F0.0067748583203645464
sI74
F-0.005002553682432855
sI75
F0.0208444553049626
sI76
F0.007031905540979674
sI77
F-0.007837683477736111
sI78
F-0.008099743937981392
sI79
F-0.007765822132698902
sI80
F0.012948637802401082
sI81
F0.007203581320533027
sI82
F-0.0007973322829664221
sI83
F0.0022551548027040045
sI84
F-0.01582642955875106
sI85
F-0.0052759497178063875
sI86
F-0.005050703534375121
sI87
F-0.026916366591608364
sI88
F0.006807877451940853
sI89
F0.013183604959763976
sI90
F0.006167804901253479
sI91
F0.009624854278529354
sI92
F0.010359788038330691
sI93
F0.006213909480640344
sI94
F-0.011315492865109513
sI95
F-0.0016130982852366224
sI96
F0.005801896401816285
sI97
F0.0030258734547650946
sI98
F0.019541443227093665
sI99
F-0.016640335930177906
sI100
F-0.006808586476971149
sI101
F-0.01422677894632352
sI102
F-0.003691962602615808
sI103
F0.0004496974690886526
sI104
F0.0048350032955599654
sI105
F0.002597437702675354
sI106
F0.009824549529707693
sI107
F0.017350374070968216
sI108
F0.012798626251917009
sI109
F-0.009089141541285718
sI110
F-0.0027429453364543233
sI111
F0.006785886628441408
sI112
F-0.011386412024810498
sI113
F0.02045233388819896
sI114
F0.019923965082166276
sI115
F-0.007111435829410916
sI116
F-0.0033874657678170804
sI117
F0.002623422785882489
sI118
F0.008609950243561319
sI119
F0.01441920592711618
sI120
F-0.00856388272612942
sI121
F0.013803786689994355
sI122
F-0.02604077074269865
sI123
F-0.012394024587008647
sI124
F-0.006825498310580514
sI125
F-0.005106707425134612
sI126
F-0.01884974345852674
sI127
F0.011269614711788828
ssI37
g8
(tRp48
I64
F0.002299449477927771
sI65
F0.01592575106933953
sI66
F0.01045336798022265
sI67
F-0.0007833691172355552
sI68
F0.009559843902111155
sI69
F-0.0013653008108959633
sI70
F-0.02066371677910986
sI71
F0.0035703381055515217
sI72
F0.0027818173764697393
sI73
F-0.018250903825219923
sI74
F0.02200339454304906
sI75
F-0.004444128023039557
sI76
F-0.012579372084814812
sI77
F-0.013069035443961612
sI78
F0.00739903763515561
sI79
F0.0009902127846857795
sI80
F0.0012970110904251741
sI81
F0.0014546422668695993
sI82
F0.006636735777817274
sI83
F0.007611272136040602
sI84
F-0.0021920847538145255
sI85
F0.011595600294611859
sI86
F-0.008777390478903462
sI87
F0.008368631633049989
sI88
F-0.01401978471443384
sI89
F0.014848700845347632
sI90
F0.004209810732023242
sI91
F0.0003561520177226403
sI92
F0.0006659671620883985
sI93
F-0.007579358402559374
sI94
F-0.0012761902322868408
sI95
F0.013100097606545265
sI96
F-0.0028898624768306422
sI97
F-0.0014636226017937552
sI98
F-0.006885191288927213
sI99
F-0.010225621786429854
sI100
F0.02061263928431623
sI101
F-0.000734826892646311
sI102
F0.005421390399514582
sI103
F-0.0002044229847039134
sI104
F-0.014583981564743692
sI105
F-0.0017086013673300621
sI106
F-0.009494527204255608
sI107
F0.01411300937816563
sI108
F0.0027382905371264
sI109
F0.006411083200300282
sI110
F0.002377684925366727
sI111
F-0.004509841299641563
sI112
F0.004536614620966743
sI113
F-0.013863379412029947
sI114
F-0.02912016791799793
sI115
F-0.008722302587373597
sI116
F0.00388557003076898
sI117
F-0.010452468890711252
sI118
F0.0014895876171630656
sI119
F-0.015403434898100752
sI120
F0.012983619424921626
sI121
F-0.00518195877229772
sI122
F0.0009059634470072039
sI123
F-0.0009587328101508799
sI124
F-0.012350106428900975
sI125
F-0.002097620381813132
sI126
F0.002050752368459176
sI127
F-0.002889712065929502
ssI38
g8
(tRp49
I64
F-0.0032516648157290095
sI65
F0.0031650124981325726
sI66
F-0.006526464401804867
sI67
F-0.012328963267390724
sI68
F0.005029883357160403
sI69
F-0.0010214632310512576
sI70
F-0.030070346159822983
sI71
F0.007175196837340505
sI72
F-0.0009754883679133509
sI73
F-0.0016110476084667197
sI74
F0.006490569709982604
sI75
F0.006259038459188424
sI76
F0.02187493285737683
sI77
F-0.009105388863438636
sI78
F-0.005063443808950925
sI79
F0.0007338715707865994
sI80
F0.0009320730623781252
sI81
F0.0019697755855780236
sI82
F0.014803761633825362
sI83
F0.0039011132677435104
sI84
F0.0021251420764941283
sI85
F0.009115429287295444
sI86
F-0.004218037538345717
sI87
F-0.021128100763976653
sI88
F-0.015075490647591614
sI89
F0.014710536068059945
sI90
F0.00815767183804951
sI91
F-0.00582196816827682
sI92
F0.011256065916823241
sI93
F-0.015603390547150221
sI94
F-0.004164859003429356
sI95
F-0.0060107900791403135
sI96
F-0.0037061831453990006
sI97
F-0.011139972056356225
sI98
F-0.007346621251035101
sI99
F0.002579791836090461
sI100
F0.003542794457904995
sI101
F0.0005010343950549238
sI102
F-0.0006412999183735016
sI103
F-0.002411593449256466
sI104
F0.016399839326041284
sI105
F0.005248661097882851
sI106
F-0.00702991917072208
sI107
F0.02128142358630845
sI108
F-0.0033991198396482315
sI109
F0.007813227806575352
sI110
F0.01847235071709557
sI111
F0.00415414108652043
sI112
F0.01673680748744824
sI113
F-0.020102635099108666
sI114
F0.0014635623220448438
sI115
F-0.010028288380204935
sI116
F-0.0026982041356083024
sI117
F-0.0003230418782610211
sI118
F0.002874537658153555
sI119
F0.025764600663418315
sI120
F-0.009297619885918445
sI121
F0.007161103612229859
sI122
F-0.0008537225553501401
sI123
F-0.016185079393027026
sI124
F0.012859731428969408
sI125
F-0.012134419685257924
sI126
F0.006873850093530526
sI127
F0.01395746094592255
ssI39
g8
(tRp50
I64
F0.0037704376972009556
sI65
F0.014846606002099789
sI66
F0.0034563476065612936
sI67
F-0.012507027371533749
sI68
F0.0126542426796774
sI69
F-0.0179995142684459
sI70
F0.005463297764231577
sI71
F-8.316514213925294e-05
sI72
F0.004149007264143642
sI73
F0.0001658722090211705
sI74
F-0.0038268271332031313
sI75
F0.00879750781261161
sI76
F0.006254902453979839
sI77
F-0.018755720433918675
sI78
F0.005896643691245373
sI79
F0.0050574037363436365
sI80
F0.008107625129820512
sI81
F-0.0032002059717013056
sI82
F0.004969240547547248
sI83
F-0.008096484193731343
sI84
F-0.03182851874669948
sI85
F0.007891984488128643
sI86
F0.01894489619666873
sI87
F-0.0023485261010067187
sI88
F-0.008441579295855203
sI89
F-0.0063711647360230935
sI90
F-0.012071231005350049
sI91
F0.01374672122685276
sI92
F0.010272302797702812
sI93
F-0.011030780058915531
sI94
F0.004024456795283951
sI95
F0.004722161687837616
sI96
F-0.009741270387519733
sI97
F0.032377539364542754
sI98
F-0.011670846708019645
sI99
F-0.010865225667538466
sI100
F0.0013556853726533356
sI101
F-0.025555461726587434
sI102
F0.005007349707214685
sI103
F0.013340980402763382
sI104
F0.008468835940110848
sI105
F0.01696365985812983
sI106
F0.004675070659480816
sI107
F-0.012806168111862574
sI108
F0.01078126879685787
sI109
F0.0017397139742617198
sI110
F0.00757835249771819
sI111
F0.005046230152906429
sI112
F0.0032345949620893022
sI113
F-0.00010780820302218822
sI114
F0.0004163462737989956
sI115
F0.005273032651061595
sI116
F0.006539026712317762
sI117
F0.0005896614091964296
sI118
F0.004259617561507735
sI119
F0.0053433447667620305
sI120
F0.00821306946673028
sI121
F0.012385929628740567
sI122
F-0.004658330005135502
sI123
F0.0054857025227686585
sI124
F-0.015704748082540177
sI125
F0.011824357007802183
sI126
F0.013748846058770003
sI127
F-0.004933069278379612
ssI40
g8
(tRp51
I64
F-0.020139767795424292
sI65
F-0.006362989784401253
sI66
F0.015367078967030346
sI67
F-0.008942347639966349
sI68
F-0.009072562909800373
sI69
F0.0001291344307384691
sI70
F0.01129476345621789
sI71
F0.001168404104037491
sI72
F-0.005550631954616659
sI73
F0.0008657085230629167
sI74
F-0.012336447339164239
sI75
F0.004295942470844025
sI76
F-0.012310699061019247
sI77
F-0.0078918546011708
sI78
F-0.024883990620671245
sI79
F-0.0021148816204228527
sI80
F-0.015228543222098608
sI81
F0.0036610965468100924
sI82
F-0.005809701779913601
sI83
F0.004312218240797904
sI84
F0.004664424147506439
sI85
F-0.012338370268350796
sI86
F-0.002708148222662688
sI87
F0.006353871062554872
sI88
F0.01349458933843276
sI89
F-0.02681550947672421
sI90
F-0.010373088405028258
sI91
F0.006301846710266455
sI92
F0.017426851504474865
sI93
F0.003672511143325546
sI94
F-0.0030796990343980118
sI95
F-0.013502776710769422
sI96
F-0.023433324395197814
sI97
F-0.0006293221716917584
sI98
F0.007532903331946105
sI99
F0.0001245005363346227
sI100
F0.004651592593065443
sI101
F0.002246956214969671
sI102
F0.0016768566872836124
sI103
F0.000391532005030932
sI104
F2.4808299109750213e-05
sI105
F-0.015427246136179799
sI106
F-0.00939762631646647
sI107
F-0.004178574152154216
sI108
F-0.0011750409675866686
sI109
F-0.020201271223686108
sI110
F-0.0017047703461273336
sI111
F-0.019997435241307687
sI112
F-0.020716260201092716
sI113
F0.0010507088802674
sI114
F0.012295602614529715
sI115
F0.0023740109973410385
sI116
F0.0005610461560603809
sI117
F0.01577276464472213
sI118
F-0.016158548235552066
sI119
F-0.012171382161174861
sI120
F-0.0059552308461352284
sI121
F-0.024098998659700555
sI122
F-0.0051317849684133525
sI123
F0.009198269756376947
sI124
F0.021421311052728317
sI125
F0.004786550087979112
sI126
F0.0022708165233131816
sI127
F0.010868947593463215
ssI41
g8
(tRp52
I64
F-0.00040395242519109437
sI65
F0.0006419937185935595
sI66
F0.009447972496786345
sI67
F0.009585405839092785
sI68
F0.004633540241135487
sI69
F0.0030481123471500977
sI70
F0.003698408781967941
sI71
F0.010876903762539634
sI72
F0.0028684018503900583
sI73
F-0.0066214945452756375
sI74
F0.0037220302697072278
sI75
F0.002781652414922119
sI76
F0.0025867362031797153
sI77
F0.008354067007262678
sI78
F-0.019111605957628317
sI79
F0.003710908403292229
sI80
F0.0014800026360354886
sI81
F0.0002607659942147623
sI82
F-0.002469279856459919
sI83
F0.015357376673768708
sI84
F-0.0004907173130378218
sI85
F-0.010325774398182224
sI86
F0.0017289856614062739
sI87
F-0.011309748497617947
sI88
F0.011106456440776957
sI89
F-0.016831661843293336
sI90
F0.003715110746765204
sI91
F0.021113939426126188
sI92
F0.009081428568047464
sI93
F0.0033228026673401373
sI94
F-0.005155303847631295
sI95
F0.0028425286055213015
sI96
F-0.0034038500475570607
sI97
F0.00838063208914575
sI98
F0.025190805051913606
sI99
F-0.003331749144100141
sI100
F0.006892809341776785
sI101
F0.008381262570661184
sI102
F-0.00789769627119118
sI103
F0.007532131308239466
sI104
F-0.017000229010383467
sI105
F-0.01407308018969786
sI106
F0.0029965465769238252
sI107
F0.016012486879382257
sI108
F-0.014925353502433084
sI109
F-0.0015653330084496294
sI110
F-0.011701290608512535
sI111
F-0.007698488819844816
sI112
F-0.010390534938107352
sI113
F-0.0015224377268147668
sI114
F0.005706492887098266
sI115
F0.01368764157896861
sI116
F-0.004969808857561298
sI117
F0.01167053364176089
sI118
F-0.021199634592473482
sI119
F0.0008874813563933108
sI120
F0.008358217366128342
sI121
F-0.005192759340334221
sI122
F0.003417251209734107
sI123
F-0.002306081646386136
sI124
F0.015032423300615742
sI125
F-0.03110680190643643
sI126
F-0.005501069376449076
sI127
F-0.005500296246905284
ssI42
g8
(tRp53
I64
F-0.01741180451280641
sI65
F0.01250288221597076
sI66
F0.0011910353335225132
sI67
F0.003836348924159606
sI68
F-0.008604625750193459
sI69
F-0.003232938208524321
sI70
F0.015682740652664118
sI71
F-0.011290592516650945
sI72
F0.003983909011135427
sI73
F0.009846404907464768
sI74
F-0.015599384805357374
sI75
F0.007224020793133819
sI76
F0.0065067933593651725
sI77
F0.008336678368671928
sI78
F0.0011397586987088272
sI79
F0.009355899965066626
sI80
F0.0005503254720764031
sI81
F-0.003154432918648996
sI82
F0.012284275416994126
sI83
F0.011834411388449364
sI84
F0.01886594370052688
sI85
F-0.015889460152911313
sI86
F-0.013051727145043183
sI87
F0.00073564873339075
sI88
F0.0036861944002612246
sI89
F0.0041012808150722654
sI90
F-0.012336860247663234
sI91
F0.004519981669367359
sI92
F0.012896596096947025
sI93
F0.022372501634250995
sI94
F0.02486392148585033
sI95
F-0.006398903919878788
sI96
F-0.002880975562180753
sI97
F-0.005477052608465651
sI98
F-0.007907025355161607
sI99
F0.007975084229983897
sI100
F0.003088834643469141
sI101
F-0.00129230719683368
sI102
F-0.006137968588428906
sI103
F-0.012318498570757293
sI104
F0.007392831605822151
sI105
F0.0040986316948998895
sI106
F0.001879742688249487
sI107
F-0.01561800331367103
sI108
F-0.0017569216684542163
sI109
F0.004438226818451124
sI110
F-0.0010739533755485399
sI111
F-0.001220462796144875
sI112
F-0.005967977093948319
sI113
F0.021363058031093868
sI114
F0.0038583881966915835
sI115
F0.014365834525700685
sI116
F0.007884249022721208
sI117
F-0.02360149840211232
sI118
F-0.006104224330997163
sI119
F-0.022441905343197264
sI120
F-0.016029137983601525
sI121
F-0.006951850518180548
sI122
F-0.0034607216193905358
sI123
F-0.006347791332078398
sI124
F0.011291298163801604
sI125
F0.004708785055281822
sI126
F-0.018673907974268603
sI127
F-0.005924131816400473
ssI43
g8
(tRp54
I64
F-0.00047704346755738486
sI65
F0.002499085553212289
sI66
F0.0110742540298178
sI67
F-0.005616370600726068
sI68
F0.010802413006630039
sI69
F0.004829106467501978
sI70
F-0.008578987500795276
sI71
F-0.0025493486785886183
sI72
F-0.01804825043868634
sI73
F0.018468869152648067
sI74
F0.005391476091216447
sI75
F0.013521914892533047
sI76
F-0.005445476393168133
sI77
F0.012719748280801298
sI78
F-0.007434451853407358
sI79
F0.016856416100980355
sI80
F-0.012070364412995816
sI81
F0.002876818655421433
sI82
F-0.0071990998099723
sI83
F0.003718138660785141
sI84
F-0.009243952445603226
sI85
F0.0014599501587446116
sI86
F-0.014670530225773578
sI87
F-0.005761288290850567
sI88
F0.023475168832761163
sI89
F-0.0004908526797580009
sI90
F0.000639451815661068
sI91
F0.009353017907423418
sI92
F0.005320576201992802
sI93
F0.00026840155808788914
sI94
F0.014105135188769777
sI95
F-0.013592582793910573
sI96
F0.020971325341575787
sI97
F0.0038409070530833417
sI98
F0.010108354533468776
sI99
F-0.0035343326915887453
sI100
F0.011401691292950067
sI101
F-0.008746121153955929
sI102
F-0.00717981485118182
sI103
F-0.0017927317184206594
sI104
F0.006571362226141965
sI105
F0.0009781241588134218
sI106
F-0.010302172194626997
sI107
F-0.009813586646657622
sI108
F0.009239346521268158
sI109
F-0.014999941717140464
sI110
F-0.017654378331594844
sI111
F-0.0040181331564415725
sI112
F-0.0062643607263888285
sI113
F0.005206192555465812
sI114
F-0.00028137022465144894
sI115
F-0.001592599667593442
sI116
F0.007874648142226099
sI117
F0.006830377044292847
sI118
F-0.0028908896638909476
sI119
F0.008664378296132121
sI120
F0.019046017794474745
sI121
F-0.0005150744431546818
sI122
F0.0022678606108890976
sI123
F-0.0005219718844703547
sI124
F0.0018943235171332586
sI125
F0.0038111813921766487
sI126
F0.007741061217295159
sI127
F-0.008330949198948681
ssI44
g8
(tRp55
I64
F0.004917020957206417
sI65
F-0.005459112901799756
sI66
F0.012078770755654276
sI67
F0.0013560596547975796
sI68
F0.008360147413964604
sI69
F-0.018360744670709493
sI70
F-0.0019123990879345116
sI71
F0.006906190168210989
sI72
F-0.0020476650193669756
sI73
F-0.003177569332543899
sI74
F0.007875272945979755
sI75
F0.004241732377153398
sI76
F0.018016639809886777
sI77
F0.004518678405387913
sI78
F-0.0073079522981936915
sI79
F-0.0014510531922772524
sI80
F-0.015548992039208636
sI81
F-0.0013074083041533387
sI82
F0.02111154158965564
sI83
F-0.0016156553635919089
sI84
F0.012605957976193967
sI85
F-0.009708731341780347
sI86
F0.010602580575544944
sI87
F-0.014596656529129086
sI88
F-0.005331164394307477
sI89
F0.0048717077666564305
sI90
F-0.00042613583539488756
sI91
F0.004346944570410111
sI92
F0.0026495172402725537
sI93
F-0.011072584011782821
sI94
F0.0063376069077397445
sI95
F0.004756764728665356
sI96
F-0.007793216501170275
sI97
F-0.0013049652547846126
sI98
F0.002939473448222074
sI99
F-0.010653956895879361
sI100
F0.0010401545104921411
sI101
F-0.007186493552150474
sI102
F0.006325954361536325
sI103
F-0.01832763964464731
sI104
F0.007644867048481416
sI105
F0.013891896769465482
sI106
F-0.022963561700097532
sI107
F0.0003103629837122743
sI108
F0.008127854915283953
sI109
F0.0026383689907945027
sI110
F-0.010971204782081839
sI111
F0.0005789291305901989
sI112
F-0.004444646900619167
sI113
F-0.0043816393750561716
sI114
F0.011370028668793247
sI115
F0.007236990150267825
sI116
F0.0008650979509721752
sI117
F0.00851623195908854
sI118
F0.0022572291345035202
sI119
F-0.019153961185728343
sI120
F0.010206908001142441
sI121
F0.009069530866410104
sI122
F0.004960414338640508
sI123
F-0.006729540666794
sI124
F0.0059845482396951285
sI125
F-0.014303742717264638
sI126
F0.011002761027177744
sI127
F-0.01990879692374644
ssI45
g8
(tRp56
I64
F-0.004596878689402424
sI65
F-0.0036133940174450266
sI66
F-0.0007528707596104264
sI67
F-0.016215748641606714
sI68
F0.014357302063107988
sI69
F0.0005405231626177106
sI70
F0.004591876847299012
sI71
F-0.010883460520590324
sI72
F-0.005748328311532343
sI73
F-0.017520073565032147
sI74
F0.01572440208858639
sI75
F0.008141708158429508
sI76
F0.014357461447655838
sI77
F0.009484766671787069
sI78
F0.008267124474386897
sI79
F0.0014636237035991534
sI80
F0.004239108437731279
sI81
F-0.0022478130444309194
sI82
F0.012792662586742581
sI83
F-0.008250211486342142
sI84
F-0.02357101019212812
sI85
F-0.01868037770974814
sI86
F0.007326711563738741
sI87
F-0.01050726799966628
sI88
F0.002988371478326172
sI89
F0.01690619079906161
sI90
F-0.004792820612824831
sI91
F0.015758853426566723
sI92
F-0.0026780176543456263
sI93
F-0.0016132936943273717
sI94
F-0.0010711239021736715
sI95
F-0.0010331381999270385
sI96
F-0.017140353951164238
sI97
F-0.0011929225087728569
sI98
F-0.021915984664516226
sI99
F-0.010223820962389258
sI100
F0.0015406013262615325
sI101
F-0.01854170397252029
sI102
F0.003936429572654045
sI103
F0.0037065010613276635
sI104
F0.019860532665589615
sI105
F0.005784717572631558
sI106
F-0.015062623822310774
sI107
F-0.0089226885993104
sI108
F0.013734635794005738
sI109
F0.0010282492126701104
sI110
F-0.009352898879281908
sI111
F-0.0037476129104776624
sI112
F-0.00022648671429027328
sI113
F-0.0006734169007202246
sI114
F-0.00716225673215465
sI115
F-0.0042585159377004815
sI116
F-8.561847215042267e-05
sI117
F0.0016335989520470926
sI118
F0.00043984282423554437
sI119
F-0.0026169056486756736
sI120
F-0.01924766764446564
sI121
F0.0010804281831447154
sI122
F-0.016300690320306198
sI123
F-0.024018122547087736
sI124
F-0.0067404045876867024
sI125
F0.017156972373883916
sI126
F-0.004393691106630028
sI127
F-0.002118872530434981
ssI46
g8
(tRp57
I64
F0.0005355895123289715
sI65
F0.0010142189703127417
sI66
F0.005105922263249135
sI67
F-0.011171596990387275
sI68
F0.00951559878194558
sI69
F-0.02386025262505861
sI70
F0.010563238979672294
sI71
F0.009533404396719626
sI72
F0.004908464147237026
sI73
F0.010936529143153665
sI74
F0.005419587556265546
sI75
F0.005624300570765849
sI76
F0.0014920759431995714
sI77
F-0.007685400710626175
sI78
F-0.0072205739817927505
sI79
F-0.0011469758981668338
sI80
F-0.005677551138903057
sI81
F0.02099594433961066
sI82
F0.008683260050889301
sI83
F-0.002136899542473712
sI84
F-0.015072794007700806
sI85
F-4.878429138918446e-06
sI86
F0.0023497967810325367
sI87
F-0.016127082267874328
sI88
F-0.00551389324159162
sI89
F0.0023027272159051398
sI90
F0.004462363862329958
sI91
F0.013552142177077122
sI92
F0.0002630912465798075
sI93
F-0.001104692537985181
sI94
F0.006058980012733016
sI95
F-0.0007410241465197458
sI96
F0.018758556628643595
sI97
F0.012605125609928977
sI98
F-0.01090116042304086
sI99
F-0.012446553003769378
sI100
F-0.008086065966834435
sI101
F-0.004902768944671615
sI102
F0.0003088007298941035
sI103
F0.010993770669931369
sI104
F0.01825294743521955
sI105
F0.01371324049041802
sI106
F0.004301605587559213
sI107
F-0.014590958281524432
sI108
F0.01346890868128135
sI109
F-0.009333674314589075
sI110
F0.021992596484775643
sI111
F0.010373586007991402
sI112
F0.0036106630513955307
sI113
F-0.007568494161952792
sI114
F-0.01097076548488553
sI115
F0.013846534871824002
sI116
F-0.00490472448142644
sI117
F0.00956339532558225
sI118
F0.0036173668989588287
sI119
F-0.0005233783422134392
sI120
F0.0051691876966605994
sI121
F0.0031055622155237677
sI122
F-0.01670466111974861
sI123
F-0.0067667853712233
sI124
F-0.001796877023911671
sI125
F-0.01607761539686932
sI126
F0.003248843839999893
sI127
F-0.005051245053714596
ssI47
g8
(tRp58
I64
F-0.030318213034043962
sI65
F0.017928707543866804
sI66
F-0.0038502475826536512
sI67
F-0.008089772118150866
sI68
F0.017864182320523673
sI69
F-0.006187232221814275
sI70
F-0.0018978702354144003
sI71
F0.01464135668295965
sI72
F-0.008744587007541172
sI73
F0.018612542297387638
sI74
F0.011996543803261858
sI75
F0.00013969982648255646
sI76
F0.012204600806660484
sI77
F-0.016900565380836514
sI78
F0.0028594719285119675
sI79
F0.005254861249457306
sI80
F-0.007200061302261496
sI81
F0.005887829066937671
sI82
F0.017285067556167995
sI83
F0.003022724332650357
sI84
F0.001326568059754419
sI85
F0.009573748053258974
sI86
F-0.013359282259004821
sI87
F-0.005981688867842522
sI88
F-0.0053574594929308664
sI89
F0.01633764011093633
sI90
F0.01910462560996992
sI91
F-0.008211816669135136
sI92
F0.015327674308250936
sI93
F-0.013909966269985521
sI94
F0.003943389151797787
sI95
F-0.0029563962034943048
sI96
F0.008304032208344612
sI97
F0.009449860830046904
sI98
F-0.006026495636300189
sI99
F-0.012796103747357526
sI100
F-0.009835435709889592
sI101
F-0.012798284977677737
sI102
F0.00809730932577681
sI103
F0.009070111851196279
sI104
F0.005076710291052598
sI105
F0.0062838519715302825
sI106
F-0.0258474882875644
sI107
F-0.006230565356053222
sI108
F-0.0007797691525071946
sI109
F0.02177672950584636
sI110
F0.01568383251952112
sI111
F0.014884852118499842
sI112
F0.007783512021528435
sI113
F-0.002437489534187289
sI114
F0.014454827124413603
sI115
F-0.007277809542525598
sI116
F0.005442803806118484
sI117
F0.0009245681411019186
sI118
F0.009096213768305822
sI119
F-0.00016406416509515142
sI120
F-0.010245747917167126
sI121
F-0.0030918196777145615
sI122
F-0.010080470143050134
sI123
F-0.003960607120398056
sI124
F0.009343901959244234
sI125
F0.0010065898107636225
sI126
F0.014933181822895682
sI127
F-0.021456989219387636
ssI48
g8
(tRp59
I64
F0.002620969270102593
sI65
F-0.005256921649420277
sI66
F-0.011179850845180117
sI67
F-0.004872556663557304
sI68
F0.0012694013185812992
sI69
F-0.00042756579376264267
sI70
F0.015914098399399956
sI71
F-0.005609557444945294
sI72
F-0.031589543534327
sI73
F-0.00038106338664219857
sI74
F0.011879965458339314
sI75
F0.0031447381142154923
sI76
F0.004186218141560871
sI77
F0.0030363529372154905
sI78
F-0.02194368291599294
sI79
F0.01224854279706535
sI80
F-0.00974928035133801
sI81
F0.01234339797570893
sI82
F-0.009792718437293927
sI83
F0.008250117130491189
sI84
F-0.009600482954499662
sI85
F-0.023386546204973352
sI86
F-0.03020910788870267
sI87
F0.003311643528775344
sI88
F0.026777265380141673
sI89
F-0.007545455254934455
sI90
F-0.005502819079118216
sI91
F0.017643638298266675
sI92
F0.004178900004861364
sI93
F0.02178185265982707
sI94
F0.003100810666622944
sI95
F-0.0260675679707389
sI96
F0.010671017406630562
sI97
F0.005596558720088418
sI98
F0.011733904667510635
sI99
F0.0005296103753972185
sI100
F0.0015010095185901183
sI101
F-0.011767873716862403
sI102
F-0.013658857965197434
sI103
F0.0024889844415232052
sI104
F-0.0038937788436361354
sI105
F-0.017358951644712316
sI106
F0.010042023865191874
sI107
F0.007125112733904426
sI108
F0.0010113669430465376
sI109
F-0.003939515707922448
sI110
F0.0008886797609756047
sI111
F-0.025831853195828047
sI112
F-0.002069547213912924
sI113
F0.026638116006969557
sI114
F-0.009588604432547054
sI115
F0.0034206685680104845
sI116
F0.007622173622600097
sI117
F0.007877105595918442
sI118
F-0.02151096453061714
sI119
F-0.00741573037069457
sI120
F0.00891788078599654
sI121
F-0.021458754344473075
sI122
F0.010290354325686908
sI123
F-0.011647800115539354
sI124
F0.012731981482943005
sI125
F-0.009637168195006112
sI126
F0.011309181099914356
sI127
F-0.019054419227099374
ssI49
g8
(tRp60
I64
F-0.0016625522977864724
sI65
F0.001696683889510269
sI66
F0.002744466508738216
sI67
F0.006003251884816375
sI68
F0.0071664267699164735
sI69
F-0.00013502030830735503
sI70
F0.004405060304610214
sI71
F0.0018952827644386273
sI72
F-0.002962279960924551
sI73
F-0.015727307800893587
sI74
F-0.0008113512866124373
sI75
F0.02246069725820457
sI76
F-0.0012463611450456902
sI77
F0.007969847868367495
sI78
F-0.0004302626397468334
sI79
F0.013004689324365498
sI80
F-0.003352490207148909
sI81
F-0.006994329153644541
sI82
F0.01355366208098818
sI83
F0.008066139646692507
sI84
F0.0066588780452614595
sI85
F-0.013571766962522405
sI86
F-0.012989787070719778
sI87
F-0.0012104635177904732
sI88
F-0.00028097823191989077
sI89
F-0.010599039419070456
sI90
F-0.0006074594434900883
sI91
F0.003284551967766759
sI92
F0.017211248309478816
sI93
F0.00662228273075478
sI94
F0.008147578941687127
sI95
F-0.02123576139950482
sI96
F0.0056674365144357836
sI97
F0.007673025944506915
sI98
F0.009912358653491833
sI99
F-0.008428035795133924
sI100
F-0.0062264511170617475
sI101
F0.020005434232937765
sI102
F-0.02509189690732363
sI103
F0.0019256963288356932
sI104
F0.0009155370951826787
sI105
F-0.022867337027188957
sI106
F0.0064674157615559015
sI107
F-0.010656533663900401
sI108
F0.010709752047333567
sI109
F-0.01532425531935658
sI110
F0.012468607026563156
sI111
F-0.02412710040698993
sI112
F-0.012350686991377743
sI113
F0.019092305586962992
sI114
F-0.003867116091369402
sI115
F0.026135197153756232
sI116
F0.023907370647774245
sI117
F0.023720550316778104
sI118
F-0.011661153072383527
sI119
F-0.012607479667079842
sI120
F0.01022934786171863
sI121
F0.00020313929200901077
sI122
F-0.01200705169818028
sI123
F-0.0019248994547700733
sI124
F0.010393228409791141
sI125
F0.002591253142119883
sI126
F0.00966441984781914
sI127
F-0.015830851009983285
ssI50
g8
(tRp61
I64
F0.005841837518771582
sI65
F0.017280199853284554
sI66
F-0.004730322205558141
sI67
F-0.022949459372757504
sI68
F0.006860832839070788
sI69
F0.005468256804592359
sI70
F6.223903506886514e-05
sI71
F-0.011507380380929855
sI72
F-0.0296161330201648
sI73
F0.021108379848535207
sI74
F0.019671206171602056
sI75
F0.01001331493456477
sI76
F0.0020948350785175295
sI77
F0.011199887160738213
sI78
F-0.0030169654710637153
sI79
F-0.004786416845832743
sI80
F0.005203873594296745
sI81
F-0.007233998351732674
sI82
F0.004243262298329519
sI83
F0.018640196880379545
sI84
F0.004284512126784786
sI85
F0.006574015019341215
sI86
F-0.001344571324697141
sI87
F-0.001158957082365016
sI88
F0.015883181320526036
sI89
F-0.0009715031259073582
sI90
F0.011230117059562781
sI91
F0.0025845797258026437
sI92
F0.0047475700055287515
sI93
F-0.0010322437535851662
sI94
F0.0048432734538880725
sI95
F0.004145290512102112
sI96
F-0.017764251758300532
sI97
F0.0025347434560706837
sI98
F0.0023989197745387706
sI99
F-0.0023591661187244285
sI100
F0.00630784097742479
sI101
F-0.02801723541777047
sI102
F-0.011459676062012909
sI103
F-0.002837809156475192
sI104
F0.015697176508936105
sI105
F0.006439708979638715
sI106
F-0.010462715155542446
sI107
F-0.0004984629344333263
sI108
F-0.010057679523223218
sI109
F-0.011076542132275774
sI110
F0.005097895604182178
sI111
F-0.016268623169403796
sI112
F-0.0001409758877448807
sI113
F-0.0033300464502900315
sI114
F0.011789525132896545
sI115
F-0.0013093797541516249
sI116
F0.0002672557707118954
sI117
F-0.006625550465278555
sI118
F-0.020481770342975537
sI119
F-0.007292196362717676
sI120
F-0.008528752682997348
sI121
F-0.015153860648959155
sI122
F0.0027509270885854556
sI123
F-0.00880984721092831
sI124
F-0.006340596458029104
sI125
F0.009878404547320844
sI126
F0.007443420014708126
sI127
F-0.004544060695098988
ssI51
g8
(tRp62
I64
F0.015195307228757558
sI65
F-0.006592156427255293
sI66
F-0.0046965877550643
sI67
F-0.0030942721745602767
sI68
F-0.007444381728222944
sI69
F-0.0002734788698700896
sI70
F0.00791681054370814
sI71
F0.015201484427393675
sI72
F0.0022883731202569544
sI73
F-0.002628907797496554
sI74
F-0.005241748600597056
sI75
F0.017939828124865727
sI76
F0.0012247680916976972
sI77
F0.002998502674181543
sI78
F-0.0007360516500931635
sI79
F0.001921213707703134
sI80
F0.010637448225831583
sI81
F-0.004527679328621806
sI82
F0.004793884119591848
sI83
F0.007096532816085639
sI84
F-0.023589092526511153
sI85
F-0.0004634031097738244
sI86
F0.006098954820895411
sI87
F0.003987878221982296
sI88
F0.00410886937015021
sI89
F0.001404753810620953
sI90
F0.020583417952882085
sI91
F0.00630135512300382
sI92
F0.0027209469795405694
sI93
F0.0026177131144852085
sI94
F-0.008445578273985307
sI95
F-0.010451040221079615
sI96
F-0.00518507499740727
sI97
F0.017168871197412665
sI98
F0.0032100031149809947
sI99
F0.0016916733598575846
sI100
F0.005793989775621904
sI101
F0.007380485525845099
sI102
F0.0006199033163659842
sI103
F0.013461030230836765
sI104
F0.01205222672640136
sI105
F0.0052090494620906005
sI106
F0.007215522191326749
sI107
F-0.014834892738947966
sI108
F0.006176157762618222
sI109
F-0.011074301907995377
sI110
F-0.01102903931118539
sI111
F0.001630360824832454
sI112
F-0.010082128345416478
sI113
F0.0022180730220517646
sI114
F0.010754959837138384
sI115
F-0.00289745796782247
sI116
F0.01410942480630976
sI117
F0.013505273401008513
sI118
F-0.0112033848724756
sI119
F-0.016972950047576763
sI120
F-0.0001894735111155092
sI121
F-0.014876879518555718
sI122
F0.00929513649442246
sI123
F0.005431198895441823
sI124
F0.012914054854533605
sI125
F-0.008844913127656229
sI126
F0.006545578394891437
sI127
F-0.01081784804359511
ssI52
g8
(tRp63
I64
F0.008165009510094707
sI65
F0.012138549124241563
sI66
F0.013583887858620266
sI67
F-0.015690661905801647
sI68
F0.004890992943832409
sI69
F-0.003094109782854115
sI70
F-0.00375953165477823
sI71
F0.0033408707936010474
sI72
F-0.0035839069991315566
sI73
F0.013287852687007561
sI74
F0.014482511897287777
sI75
F0.016881829509130836
sI76
F0.003699773551322685
sI77
F-0.0010498642408953412
sI78
F-0.012914517096004838
sI79
F0.01183588348361149
sI80
F0.007875931907159439
sI81
F-0.009967499546447243
sI82
F-0.019317694455178565
sI83
F0.0123404493446336
sI84
F-0.01175630693601423
sI85
F-0.0004621083748966896
sI86
F-0.022827810566567484
sI87
F-0.014306915000937689
sI88
F0.0005780830650836798
sI89
F0.012222908605434245
sI90
F0.008032310336847407
sI91
F0.011740773491027333
sI92
F0.016417437764328444
sI93
F0.00204174154887791
sI94
F0.008205566509567311
sI95
F-0.0020762588408667075
sI96
F-0.00011986372738690062
sI97
F0.005032784563716743
sI98
F-0.0022508701553303977
sI99
F0.007981649044209402
sI100
F-0.005802945931557462
sI101
F-0.011480764784822087
sI102
F-0.014227363343256206
sI103
F0.0005577736034250251
sI104
F-0.005630478440862397
sI105
F0.018583062843558047
sI106
F-0.014847860177527795
sI107
F0.015778342301962355
sI108
F0.00917151855098476
sI109
F0.012122381103908902
sI110
F0.011169274705330624
sI111
F-0.010794121690183253
sI112
F-0.0013157097349849596
sI113
F0.0071649861576665586
sI114
F-0.016480411163928448
sI115
F0.0034037448811735406
sI116
F-0.0016730525418581271
sI117
F-0.0040296853375889905
sI118
F-0.019322387296418907
sI119
F-0.0044332930643680045
sI120
F0.006937132407760067
sI121
F-0.0057709223996106574
sI122
F-0.015496786053846775
sI123
F0.013026398042084535
sI124
F0.004428720494723895
sI125
F0.02438726907238495
sI126
F-0.0004638849666133111
sI127
F0.003011102047186119
ssI53
g8
(tRp64
I64
F0.013719791133624024
sI65
F-0.012290471306444145
sI66
F-0.006548779526256687
sI67
F-0.0012830332943918378
sI68
F0.0036326394527560675
sI69
F-0.008530024616168558
sI70
F0.00366945218091439
sI71
F0.007250981823354065
sI72
F0.009470862143969583
sI73
F-0.0035836783280404913
sI74
F-0.009458900348462885
sI75
F0.009224553871154628
sI76
F0.00995285821512288
sI77
F0.005317506054239162
sI78
F0.011947742118745134
sI79
F0.018669427834479994
sI80
F-0.012478009341934007
sI81
F0.009766305183018123
sI82
F0.02282722568958237
sI83
F-8.579611641922496e-05
sI84
F-0.015063717350078215
sI85
F-0.006870480526203672
sI86
F-0.009508003293039037
sI87
F-0.0038146808552717995
sI88
F0.0007525670483560006
sI89
F0.012814298513494518
sI90
F0.014832724768841758
sI91
F-0.012062998551868884
sI92
F0.0027239953183216367
sI93
F-0.0064051961725720055
sI94
F-0.00803523671611863
sI95
F-0.001295080845825624
sI96
F2.7650059951693998e-05
sI97
F-0.004989205602824534
sI98
F0.004638345122382255
sI99
F-0.02454324241247776
sI100
F0.003655980432931624
sI101
F0.005247898470087349
sI102
F0.007353880403889585
sI103
F-0.0027721356888635172
sI104
F0.012564947403011645
sI105
F-0.012860703213441781
sI106
F0.006197098835055097
sI107
F-0.004742928642010851
sI108
F0.007504919423852253
sI109
F-0.0012823191915301907
sI110
F0.010546304868630582
sI111
F0.007783557390262459
sI112
F-0.005884882728616459
sI113
F-0.002795516056920949
sI114
F0.021907146633010275
sI115
F0.010588307439908871
sI116
F0.01217005190559364
sI117
F0.0007324094841410656
sI118
F0.002159973372011788
sI119
F0.0028681750938672444
sI120
F0.0067559804111235865
sI121
F0.002338372403142307
sI122
F-0.004501516982580148
sI123
F0.0021817532063727776
sI124
F0.01337307360121003
sI125
F0.004695629242308818
sI126
F0.006130594302557414
sI127
F-0.004426116522706341
ssI54
g8
(tRp65
I64
F-0.005224702478793357
sI65
F-0.010305961336926057
sI66
F0.014494902595248932
sI67
F-0.01587769325537852
sI68
F0.009307198005854856
sI69
F-0.01016431111918338
sI70
F0.017781466929090564
sI71
F0.0029058653853176793
sI72
F-0.0068817115551510375
sI73
F0.0019506083374157975
sI74
F0.008285133042072169
sI75
F0.006382575319689887
sI76
F0.0065433528951392645
sI77
F-0.017696548080957625
sI78
F0.004102448223032993
sI79
F0.012470879674584302
sI80
F0.0001279767202825082
sI81
F-0.003731334609891627
sI82
F0.01627155672716803
sI83
F0.004983296114710978
sI84
F-0.0007939727997663597
sI85
F0.0042188721052924625
sI86
F0.002141384610628907
sI87
F-0.02042780825773353
sI88
F0.016223869871732497
sI89
F0.009367327570589829
sI90
F0.01014617185633096
sI91
F0.0032237621822011715
sI92
F-0.0037078286756094918
sI93
F-0.0123057378255191
sI94
F-0.004256710834036468
sI95
F0.001294974988976807
sI96
F0.011153092660778581
sI97
F0.006630994529525951
sI98
F0.006604749777876163
sI99
F-0.01499306525730673
sI100
F0.016810071659081507
sI101
F-0.016830312346208524
sI102
F-0.009238464570200318
sI103
F0.007159437046103953
sI104
F0.0006301643171111647
sI105
F0.011794134553275399
sI106
F-0.014327907390136596
sI107
F0.0011765289934127885
sI108
F0.028370168639490382
sI109
F0.002493983519705037
sI110
F0.0031707520427904723
sI111
F0.008687827995732395
sI112
F-0.01086315553771653
sI113
F0.012080615420936336
sI114
F-0.011607709006734735
sI115
F-0.009215743248002938
sI116
F0.022796710691843476
sI117
F-0.003388520159105006
sI118
F-0.008901551068468678
sI119
F-0.0008657966748763343
sI120
F0.00782988009494394
sI121
F-0.0004638192662967603
sI122
F-0.0068615225427321545
sI123
F-0.011701363402601644
sI124
F-0.005698896411434603
sI125
F0.0021903448347244184
sI126
F0.007694840792557496
sI127
F0.005881219530206262
ssI55
g8
(tRp66
I64
F0.006479145911690216
sI65
F0.018212071274197484
sI66
F0.006378816607332674
sI67
F-0.022821295562292416
sI68
F0.022615015312525886
sI69
F-0.020535000123458668
sI70
F0.0029725894892668084
sI71
F-0.0017947649160777062
sI72
F-0.005493193157061175
sI73
F0.0003177953551293421
sI74
F0.019626869949554662
sI75
F0.0027551872009340763
sI76
F0.023612710803825283
sI77
F-0.013118367595100393
sI78
F0.0068467661261530635
sI79
F0.004716576946231325
sI80
F-0.009647378358017027
sI81
F-0.005739204534871153
sI82
F0.016574283105016185
sI83
F0.0018445708267357407
sI84
F-0.01150573035903665
sI85
F0.00469737637715924
sI86
F-0.0032752415160080487
sI87
F0.0013157705816823529
sI88
F-0.006273030187986767
sI89
F-0.006709797749806206
sI90
F0.008300275412427931
sI91
F0.012311926710917754
sI92
F0.00539128762606614
sI93
F-0.0053436618185015205
sI94
F0.02328234383727886
sI95
F0.007251469235488367
sI96
F-0.018618328677683062
sI97
F-0.00791839458487613
sI98
F-0.038921864777060486
sI99
F-0.006989284254551131
sI100
F-0.010626653467300367
sI101
F-0.007917576595820082
sI102
F-0.0077649502984096464
sI103
F-0.00029318654234553347
sI104
F0.02119960125233736
sI105
F0.008175827850208454
sI106
F-0.012536463010192369
sI107
F0.020443786166911795
sI108
F0.01707427627574393
sI109
F-0.009362463923659204
sI110
F0.008213016719997033
sI111
F-0.013252991143651442
sI112
F0.0013532795265932642
sI113
F0.005935743811107641
sI114
F0.000996542950834599
sI115
F0.0002993002891838112
sI116
F0.006363114833940343
sI117
F-0.012317090217991624
sI118
F0.0022237850053519652
sI119
F-0.00471133387854577
sI120
F0.00783737431049305
sI121
F0.016845783066516153
sI122
F-0.01841802287111952
sI123
F0.009160140208111964
sI124
F-0.006504991503163611
sI125
F-0.015005888620725636
sI126
F0.006711720838127168
sI127
F-0.014533457526832301
ssI56
g8
(tRp67
I64
F-0.004324015249861318
sI65
F0.015454093128390013
sI66
F0.017491894749084694
sI67
F0.006011083745567102
sI68
F-0.0016055240310962537
sI69
F0.0048174918798913535
sI70
F0.014607071823728985
sI71
F0.00539566576277098
sI72
F-0.027534717043274846
sI73
F0.008764981853677845
sI74
F-0.016542247574023866
sI75
F0.0028760952162242004
sI76
F-0.007816776935082516
sI77
F0.013096211868901144
sI78
F-0.017232110557646098
sI79
F0.00969475654245805
sI80
F0.00564377734301166
sI81
F-0.006775696936695455
sI82
F-0.004549776643560946
sI83
F-0.00011247666535919519
sI84
F0.0011091084923401842
sI85
F-0.016917526409979563
sI86
F-0.0015154739034466162
sI87
F0.006432173572478752
sI88
F0.020410033913569457
sI89
F-0.020085675712543695
sI90
F0.007722764759478895
sI91
F0.013564219545579289
sI92
F0.013720848508805781
sI93
F-0.0034310628137090033
sI94
F0.011827209765682205
sI95
F-0.008690052071719145
sI96
F0.005070761469116855
sI97
F-0.007901006079753465
sI98
F-0.001049069760975828
sI99
F0.01318129517195004
sI100
F0.004321823595284053
sI101
F0.004101479306746667
sI102
F-0.02223935027156831
sI103
F-0.006990820025178651
sI104
F-0.0013158154395183337
sI105
F-0.0151250030492191
sI106
F0.010239452792997338
sI107
F-0.008518750215614468
sI108
F-0.010677456945511718
sI109
F-0.033220966791591804
sI110
F-0.008908168946663103
sI111
F0.0016308995349760384
sI112
F-0.016522302481672864
sI113
F0.02402637085539381
sI114
F0.008987762364036422
sI115
F0.02650679730203276
sI116
F0.012484079616987652
sI117
F0.0029620089181499245
sI118
F-0.021713980880723276
sI119
F-0.010062286739347547
sI120
F0.014107601756990341
sI121
F-0.014018218534735429
sI122
F0.0038746465572931776
sI123
F-0.0030096372680732284
sI124
F0.0321630351613454
sI125
F0.014476464498868321
sI126
F-0.002013315329017913
sI127
F-0.014601551572964173
ssI57
g8
(tRp68
I64
F0.0007839378002224441
sI65
F-0.004260752790321452
sI66
F0.010914465501861018
sI67
F0.0002798668290608741
sI68
F0.011773004885459772
sI69
F0.006179273501677722
sI70
F0.015214202073231304
sI71
F-0.013475680280817947
sI72
F-0.007249966893977086
sI73
F-0.005175383465158505
sI74
F0.005236448547925194
sI75
F-0.009227441083688746
sI76
F0.008727730376711975
sI77
F0.008053731452769766
sI78
F-0.019551036044043617
sI79
F0.019128691957079655
sI80
F-0.009924535328389746
sI81
F0.006003869152892608
sI82
F0.006015302367469796
sI83
F-0.004042604051430295
sI84
F0.005341689980442413
sI85
F-0.010263599446911749
sI86
F-0.013985112069690333
sI87
F-0.00038287500451633205
sI88
F0.011981289110047023
sI89
F-0.010799112983021428
sI90
F-0.005915913455807492
sI91
F0.020564849294480547
sI92
F-0.0009408770200061057
sI93
F0.012039288536900927
sI94
F0.004439442695816151
sI95
F-0.01674684916606139
sI96
F-0.0007029626874058585
sI97
F-0.014646242354674155
sI98
F0.016260591834365883
sI99
F0.0033893636142568566
sI100
F-0.014794167575066141
sI101
F0.003186067927318717
sI102
F-0.02122604232307111
sI103
F0.03138448785958784
sI104
F-0.004014417686785468
sI105
F-0.002400762481426716
sI106
F0.0058046076617354996
sI107
F0.02561919985650519
sI108
F0.001058811212324255
sI109
F-0.0018037917729231878
sI110
F0.005832402577765848
sI111
F-0.012825159715982798
sI112
F-0.016321662524362422
sI113
F0.005849076956432166
sI114
F0.000725846421721217
sI115
F0.017510972762906724
sI116
F0.03271181307626377
sI117
F0.007722500050872124
sI118
F0.007260482534772752
sI119
F-0.019068529378411126
sI120
F-0.007894964047109002
sI121
F-0.022402661279884488
sI122
F-0.0007982161977862818
sI123
F0.014302489358575338
sI124
F0.015098487625202888
sI125
F0.009001648969731473
sI126
F-0.010178373937322375
sI127
F-0.007553486287269706
ssI58
g8
(tRp69
I64
F-0.017515637732110984
sI65
F-0.007563739616656137
sI66
F0.018352665773125235
sI67
F-0.0032206233524356164
sI68
F0.0038061012559746535
sI69
F-0.0004997243453745128
sI70
F0.015938847630879695
sI71
F0.002668738425493737
sI72
F-0.010227214702848654
sI73
F0.008635370242772961
sI74
F-0.00017457819207365217
sI75
F0.002592673940193542
sI76
F0.0025271256134281337
sI77
F0.021854718268623573
sI78
F-0.021550366748205138
sI79
F0.019967801368914444
sI80
F-0.011226665516927001
sI81
F0.001584995308133418
sI82
F0.014222886117497011
sI83
F0.006837804586629046
sI84
F-0.013082668383550163
sI85
F-0.012111903964923097
sI86
F-0.015850405013536916
sI87
F0.004365119917130863
sI88
F0.008935586380795467
sI89
F-0.006222407136336795
sI90
F0.007708775220295022
sI91
F-0.0012481110503366874
sI92
F-0.0005539725125804158
sI93
F0.020185267120068004
sI94
F0.004362439684586972
sI95
F-0.022397899735625264
sI96
F-0.0067907221460004556
sI97
F0.00905708655032882
sI98
F0.0010472215303095563
sI99
F0.001415051821427137
sI100
F0.006246427516173868
sI101
F-0.00682335977612489
sI102
F-0.00818589066272395
sI103
F0.005279055742114745
sI104
F-0.006355405623154602
sI105
F0.006490099402956126
sI106
F-0.01690070568446681
sI107
F0.0027190492995230646
sI108
F-0.012814724085313598
sI109
F-0.011707836991142938
sI110
F0.002324416964502141
sI111
F-0.013258436849526857
sI112
F-0.017808670580764838
sI113
F0.02479432679199974
sI114
F-0.004430066817272905
sI115
F0.010154691964391217
sI116
F-0.0008286674327790623
sI117
F-0.0027032387847538914
sI118
F-0.0010107722838757708
sI119
F-0.015322840648101238
sI120
F0.00836282645309431
sI121
F0.0015947124070259757
sI122
F-0.002838004221581172
sI123
F-0.01690836462346379
sI124
F0.01757490223612611
sI125
F0.017631187393153648
sI126
F0.011424939294280765
sI127
F-0.017773098987729594
ssI59
g8
(tRp70
I64
F-0.017216984772719608
sI65
F-0.009022350613864302
sI66
F0.0027536205349760322
sI67
F-0.006077252682516172
sI68
F-0.0061886086210051205
sI69
F-0.01800655693701277
sI70
F0.01784489375770955
sI71
F0.004756237694373153
sI72
F-0.0007080163337082284
sI73
F0.0193265470033835
sI74
F-0.0038716194294291044
sI75
F-0.01762196296757981
sI76
F0.005758915335427868
sI77
F0.01526981779876711
sI78
F-0.012904226355649086
sI79
F0.009792181153805963
sI80
F-0.014487120847468825
sI81
F0.013757948095877322
sI82
F0.0174827899809743
sI83
F-0.0014575764107414158
sI84
F0.003680243765219981
sI85
F-0.030636826084662293
sI86
F-0.005736434476003905
sI87
F0.011185245574065717
sI88
F0.011385586712279553
sI89
F-0.007062753641062952
sI90
F-0.0013037523360772065
sI91
F0.003000346406154688
sI92
F0.005087096881065525
sI93
F0.01644783361960604
sI94
F-0.0070101270237288155
sI95
F-0.003190529559802081
sI96
F0.0025306822060463625
sI97
F-0.0014241410100625798
sI98
F0.020752275695837014
sI99
F-0.0029785906065215393
sI100
F0.004104132559136882
sI101
F-0.018436475204876162
sI102
F-0.0036513411587941577
sI103
F0.015137761918816592
sI104
F0.012412095370349957
sI105
F-0.004024797331037664
sI106
F-0.007263120371710085
sI107
F0.004988146788262508
sI108
F0.008660013862039751
sI109
F0.0010460137843204998
sI110
F-0.0071619086481346655
sI111
F-0.002377274334373548
sI112
F-0.019071622667415838
sI113
F-0.0007154040366267146
sI114
F-0.011722581283135778
sI115
F0.01894728695045473
sI116
F0.011138549661464166
sI117
F-0.0029278059835413863
sI118
F-0.01210906984429035
sI119
F-0.008438818847505783
sI120
F0.008890209342769717
sI121
F-0.010578817000965175
sI122
F-0.01847433296747585
sI123
F0.013300494441519857
sI124
F0.0075058674932026136
sI125
F0.010261002604257196
sI126
F0.010400624535184708
sI127
F-0.006394178181091971
ssI60
g8
(tRp71
I64
F0.003716787084038573
sI65
F-0.005873989667543176
sI66
F0.025746927923149778
sI67
F0.0019653378422166625
sI68
F0.008592517804504332
sI69
F-0.007326065322752666
sI70
F0.03482361755857179
sI71
F-0.0039016071495234874
sI72
F-0.014979532956348435
sI73
F-0.01281676995368766
sI74
F0.026763579169164633
sI75
F0.0008242216197410415
sI76
F-0.007940821541669817
sI77
F-0.008351649423651313
sI78
F-0.004009219683615144
sI79
F0.012815664469601381
sI80
F-0.01546099359111258
sI81
F0.002640900263204818
sI82
F0.005383324392437042
sI83
F0.012412433494126837
sI84
F-0.006741588817353132
sI85
F0.00042617447753105135
sI86
F-0.015816777847727358
sI87
F-0.02593729184055027
sI88
F0.006298405020595157
sI89
F0.02793302150188563
sI90
F-0.0007286925917507761
sI91
F0.007221578798619303
sI92
F-0.0034858858336911523
sI93
F0.012727800897124348
sI94
F-0.002980377683539485
sI95
F-0.016732770149826822
sI96
F-0.005475678894279259
sI97
F-0.0007404486124862036
sI98
F0.013553821994894398
sI99
F-0.016575661159754215
sI100
F0.0008535487690084982
sI101
F0.008920582735951744
sI102
F-0.017346562530674528
sI103
F-0.019813153629617112
sI104
F0.0180179257540162
sI105
F0.016737164489862916
sI106
F-0.020925569374353477
sI107
F-0.0014925584594908097
sI108
F0.0066485848034117615
sI109
F0.0051370842081759046
sI110
F0.012204395281929186
sI111
F-0.011529826565127538
sI112
F-0.006999979781746413
sI113
F0.014072491823760011
sI114
F-0.0045646396888416
sI115
F-0.0018227423906926326
sI116
F0.020898552275292026
sI117
F0.011249918045809604
sI118
F-0.005831030205930715
sI119
F0.00349558544769282
sI120
F-0.012294654920768828
sI121
F-0.011381894188763373
sI122
F-0.009615761726752678
sI123
F0.009168225657235247
sI124
F-0.002393062711449708
sI125
F-0.004096351666422183
sI126
F0.014914520227546163
sI127
F-0.013240821416075388
ssI61
g8
(tRp72
I64
F-0.009212779057508778
sI65
F0.002185574062804902
sI66
F0.019218238217958067
sI67
F-0.011494897128437707
sI68
F0.012338891776036576
sI69
F-0.023425368885042683
sI70
F0.00898959678175695
sI71
F-0.00012234733552392781
sI72
F0.013759725244814997
sI73
F0.012281667925035489
sI74
F0.023459252094005144
sI75
F0.015508801570174887
sI76
F0.010844148673120627
sI77
F0.0006359392950962212
sI78
F-0.00028323469805532594
sI79
F0.005609227432732798
sI80
F-0.006953690954781557
sI81
F0.005197808298376075
sI82
F0.00481880003252954
sI83
F0.0006497969718286039
sI84
F-0.011013746487426753
sI85
F-0.002382822149544431
sI86
F-0.001938773425115964
sI87
F-0.007001881273159478
sI88
F0.010078251600502472
sI89
F0.011086527420107382
sI90
F-0.004196428452637806
sI91
F0.01153151865214149
sI92
F0.0009711118547461974
sI93
F-0.011991036753760965
sI94
F0.013925745392039328
sI95
F-0.0038552903195209773
sI96
F0.01731959703239473
sI97
F0.010654644286291998
sI98
F-0.006181579473257135
sI99
F-0.009268742140430547
sI100
F0.0014597171288303768
sI101
F-0.018127999823418287
sI102
F0.0031567919460459577
sI103
F0.004049327529404504
sI104
F0.008815053809745519
sI105
F0.0028708466646016847
sI106
F-0.011338555781011032
sI107
F-0.005333384020133727
sI108
F0.022243267950366217
sI109
F-0.015431224187249983
sI110
F0.015392615398302913
sI111
F-0.014959034113041654
sI112
F0.004908438782003152
sI113
F0.011537798499113738
sI114
F-0.005334789090556459
sI115
F0.01631185154419928
sI116
F0.014188624292990185
sI117
F0.002668456514841139
sI118
F-0.004326084267778885
sI119
F-0.003712994744838581
sI120
F-0.008148864149154743
sI121
F-0.004433964479418927
sI122
F-0.010428004653449157
sI123
F0.004677529232422883
sI124
F0.011067420163426768
sI125
F0.005735364367919367
sI126
F0.0032288504533118222
sI127
F-0.02440223827305109
ssI62
g8
(tRp73
I64
F-0.0018569727488268436
sI65
F-0.003983027580858651
sI66
F-0.010148131983409815
sI67
F-0.034499894603861485
sI68
F0.01694353139043959
sI69
F-0.012312873176606478
sI70
F0.020043877890523018
sI71
F0.00389663978741949
sI72
F-0.008809897415380187
sI73
F-0.007006237161297703
sI74
F0.015338713420891648
sI75
F-0.006702986649574855
sI76
F0.00636342342013726
sI77
F-0.007296271544037466
sI78
F0.0014615164422048465
sI79
F0.014792018916294501
sI80
F-0.009157961036665042
sI81
F0.02408418667794653
sI82
F0.01301020398530047
sI83
F-0.008025031996080534
sI84
F-0.015565678269559563
sI85
F-0.009069370425626706
sI86
F-0.009031482366780513
sI87
F-0.023246976396335283
sI88
F-0.004717337863515169
sI89
F0.012004282070021778
sI90
F0.006741641810537066
sI91
F0.0024969247448807133
sI92
F-0.00977100616097909
sI93
F0.0008729146682341894
sI94
F0.0034349515961945728
sI95
F0.003595795711539625
sI96
F0.016746476261859645
sI97
F0.003576193709744385
sI98
F-0.016093748869502437
sI99
F-0.009272785035837408
sI100
F-0.004666933364514215
sI101
F-0.020726775619767403
sI102
F0.004515369003016459
sI103
F0.0030511345103016382
sI104
F0.019374266301616407
sI105
F0.02119641261680176
sI106
F-0.00998189935215567
sI107
F0.007264864602245048
sI108
F0.029004668749766403
sI109
F0.01680856147079531
sI110
F0.010010413671893715
sI111
F-0.003935581819520364
sI112
F-0.0015799788024564753
sI113
F0.0039412037597870596
sI114
F-0.006659891546755184
sI115
F-0.00781624702127932
sI116
F0.009775228570866448
sI117
F0.0033090784908217444
sI118
F-0.006644552348022702
sI119
F-0.010564205572321055
sI120
F0.004782925206904063
sI121
F-0.0005364422346981346
sI122
F-0.020393773622170833
sI123
F-0.006142284316971672
sI124
F-0.018675264593878516
sI125
F-0.0017379837435020282
sI126
F0.0023950422272897417
sI127
F-0.01373400581855734
ssI63
g8
(tRp74
I64
F0.01816938960200793
sI65
F0.011114757650291088
sI66
F4.651567827101074e-05
sI67
F-0.00648684378570089
sI68
F0.015293682165165334
sI69
F-0.02237802352524859
sI70
F0.012105985633824722
sI71
F-0.0023536790905057613
sI72
F0.0030969702555661846
sI73
F0.001193085974892823
sI74
F0.014683431188875246
sI75
F-0.010404053693568721
sI76
F0.0128035874903271
sI77
F-0.023982729107933348
sI78
F2.6701537939135637e-05
sI79
F0.01753326421959513
sI80
F-0.018098717767036282
sI81
F-0.002837361751812936
sI82
F0.014828681264806569
sI83
F-0.004367628257132747
sI84
F-0.023027977408903038
sI85
F0.0017657302724089093
sI86
F-0.013590711867679345
sI87
F-0.03832729028212367
sI88
F-0.0035285452957226093
sI89
F0.02031720513727733
sI90
F-0.015164834495835364
sI91
F0.01528723846732611
sI92
F0.0019081663184192946
sI93
F-0.027897039246013555
sI94
F-0.005269650605463003
sI95
F0.006433562182041409
sI96
F0.007658108482313155
sI97
F0.01463197048460201
sI98
F-0.008124698970116195
sI99
F-0.0271167606440614
sI100
F0.012359148769516173
sI101
F-0.02353324439541933
sI102
F0.0188681077407073
sI103
F-0.0005303431546098749
sI104
F0.014748987498450957
sI105
F0.00760736714105888
sI106
F-0.03473529253017316
sI107
F-0.007412130146881825
sI108
F0.022626690529747973
sI109
F-0.0023873112389911784
sI110
F-0.004377443041731716
sI111
F0.012001616313609213
sI112
F0.0021873475182639054
sI113
F-0.010018090369873573
sI114
F0.01528171584201903
sI115
F-0.010632384394945744
sI116
F0.010239861648983908
sI117
F-0.00015786828854932156
sI118
F0.0003707945638522467
sI119
F-0.0035410069507915668
sI120
F0.002103091843332327
sI121
F-0.0002513236064969818
sI122
F-0.020141137681379886
sI123
F-0.006165720824618122
sI124
F0.009914348330494777
sI125
F0.0003480124411198369
sI126
F-0.004538118405195758
sI127
F-0.017403949354371683
ssI64
g8
(tRp75
I128
F-0.004952453697426066
sI129
F-0.0023823446536544073
sI130
F0.009479944477548883
sI131
F-0.007910796607139727
ssI65
g8
(tRp76
I128
F-0.04851951574330076
sI129
F-0.015346034843239077
sI130
F-0.004148560007675556
sI131
F-0.017691496653292765
ssI66
g8
(tRp77
I128
F-0.1101571814130298
sI129
F0.0024869793269056955
sI130
F0.009694349938765345
sI131
F0.010205574576612622
ssI67
g8
(tRp78
I128
F0.1050269902054093
sI129
F-0.14502075372959058
sI130
F-0.1334296594528843
sI131
F0.11418935128932817
ssI68
g8
(tRp79
I128
F-0.1577884889097163
sI129
F0.12349658222521705
sI130
F0.1003201782810673
sI131
F-0.09551017656705715
ssI69
g8
(tRp80
I128
F0.09464216775997433
sI129
F-0.12124074171931146
sI130
F-0.11605669083438541
sI131
F0.11354059637693464
ssI70
g8
(tRp81
I128
F-0.04934762624570556
sI129
F-0.06461451802314964
sI130
F0.17517848855513646
sI131
F-0.05554274747088508
ssI71
g8
(tRp82
I128
F-0.03699058626339027
sI129
F-0.014879353014480961
sI130
F-0.014051163525145098
sI131
F-0.01274005255068634
ssI72
g8
(tRp83
I128
F0.1263103311697201
sI129
F0.0549471511803027
sI130
F-0.10430641883918254
sI131
F-0.10115411556848872
ssI73
g8
(tRp84
I128
F-0.04059234369207295
sI129
F-0.02448640653641518
sI130
F-0.014149387643227979
sI131
F-0.019880630069752398
ssI74
g8
(tRp85
I128
F-0.10846098837115711
sI129
F0.10496818306420963
sI130
F0.0825048017485334
sI131
F-0.13854468120977076
ssI75
g8
(tRp86
I128
F-0.03630523748066433
sI129
F-0.029143301585772927
sI130
F-0.00036527944403381144
sI131
F-0.013803764306170788
ssI76
g8
(tRp87
I128
F-0.06782398012356572
sI129
F0.06806121611572788
sI130
F0.05720156715805279
sI131
F-0.06798493156887418
ssI77
g8
(tRp88
I128
F0.039781222036959475
sI129
F-0.1718148161527194
sI130
F0.055443760779151106
sI131
F0.015892749227265805
ssI78
g8
(tRp89
I128
F0.09305594693555848
sI129
F0.11653288192004856
sI130
F-0.08717096760749021
sI131
F-0.11831128574337454
ssI79
g8
(tRp90
I128
F-0.07313667734995331
sI129
F-0.0750441527601052
sI130
F0.17576169154208088
sI131
F-0.07328277142116044
ssI80
g8
(tRp91
I128
F0.00580688646142005
sI129
F-0.0006451306891787179
sI130
F-0.06952719664368644
sI131
F0.030438450987347238
ssI81
g8
(tRp92
I128
F-0.04079239772933427
sI129
F-0.026620565996830763
sI130
F-0.0059144266347829
sI131
F-0.010746430733903948
ssI82
g8
(tRp93
I128
F-0.16273402227553865
sI129
F0.10097111894986759
sI130
F0.11871251968468503
sI131
F-0.11041826994659605
ssI83
g8
(tRp94
I128
F-0.05232174097813374
sI129
F-0.05644608611529592
sI130
F0.013811929924933158
sI131
F-0.0012707858591578713
ssI84
g8
(tRp95
I128
F0.06916539188705322
sI129
F-0.1218385367621329
sI130
F-0.0977188077800328
sI131
F0.08577381309906831
ssI85
g8
(tRp96
I128
F0.10116240420921377
sI129
F0.10842037353719164
sI130
F-0.1441619610750704
sI131
F-0.10347749437042737
ssI86
g8
(tRp97
I128
F0.011302528727767535
sI129
F0.04588990306451785
sI130
F-0.11090917669267072
sI131
F0.02141553323132998
ssI87
g8
(tRp98
I128
F0.09183963144481413
sI129
F-0.12967994355928464
sI130
F-0.11119827742347538
sI131
F0.09932377355251926
ssI88
g8
(tRp99
I128
F-0.13239745208115863
sI129
F-0.12112634196693174
sI130
F0.11140297557103128
sI131
F0.12184160754580636
ssI89
g8
(tRp100
I128
F0.055418633157405146
sI129
F0.019991915799565513
sI130
F0.06230370908893122
sI131
F-0.20827200535449955
ssI90
g8
(tRp101
I128
F-0.0315437973667948
sI129
F-0.007302175048859541
sI130
F-0.022220255049646677
sI131
F-0.017072579709335334
ssI91
g8
(tRp102
I128
F-0.1249948175802658
sI129
F0.013819907445232989
sI130
F0.0032944956391013657
sI131
F0.04904219560803664
ssI92
g8
(tRp103
I128
F-0.01914575960820714
sI129
F-0.03319122321130077
sI130
F-0.006557364815168721
sI131
F-0.007351938274845887
ssI93
g8
(tRp104
I128
F0.029052707174452866
sI129
F-0.20257407169947128
sI130
F0.0736121268973495
sI131
F0.035245150922287874
ssI94
g8
(tRp105
I128
F-0.04488872986458343
sI129
F-0.02298005821824956
sI130
F-0.02228937835931077
sI131
F7.312317450483742e-06
ssI95
g8
(tRp106
I128
F0.09029424620068388
sI129
F0.1146367310446107
sI130
F-0.11696214292630558
sI131
F-0.13629151619398022
ssI96
g8
(tRp107
I128
F-0.031939601302724725
sI129
F-0.016128670278390208
sI130
F-0.024250665484200375
sI131
F0.0024126932623481853
ssI97
g8
(tRp108
I128
F-0.026468652601909348
sI129
F-0.01221094569214164
sI130
F-0.02643571790421139
sI131
F-0.014917636309404122
ssI98
g8
(tRp109
I128
F0.047765290159122745
sI129
F-0.1656785684483259
sI130
F0.03630914333955971
sI131
F0.022865426856914686
ssI99
g8
(tRp110
I128
F0.10127374180276072
sI129
F-0.12713473595417396
sI130
F-0.08760970171950648
sI131
F0.099872096399638
ssI100
g8
(tRp111
I128
F-0.034539339042446625
sI129
F-0.02159769372992947
sI130
F-0.007077599694168058
sI131
F-0.019028358265897626
ssI101
g8
(tRp112
I128
F0.10266021439111392
sI129
F-0.12062447602203191
sI130
F-0.13141799425326817
sI131
F0.10161037320018802
ssI102
g8
(tRp113
I128
F0.0943791495154249
sI129
F0.09794557602629397
sI130
F-0.09755647796824372
sI131
F-0.13280884805639373
ssI103
g8
(tRp114
I128
F-0.04656752978507486
sI129
F-0.0027858877024383027
sI130
F-0.021153824170277006
sI131
F-0.009679974870424279
ssI104
g8
(tRp115
I128
F-0.13794553054702774
sI129
F0.10492939347778066
sI130
F0.11865889358620796
sI131
F-0.10243588565270376
ssI105
g8
(tRp116
I128
F0.04880652515884565
sI129
F0.007903445531479848
sI130
F0.059337093432607395
sI131
F-0.1918262052444701
ssI106
g8
(tRp117
I128
F0.0937650278388732
sI129
F-0.09977838750857222
sI130
F-0.12098181542416432
sI131
F0.10542764718682089
ssI107
g8
(tRp118
I128
F-0.03965699286468295
sI129
F-0.004402998975858467
sI130
F-0.02335120233719192
sI131
F-0.015956446683950014
ssI108
g8
(tRp119
I128
F-0.1136881328967975
sI129
F0.1153586582941731
sI130
F0.10255438069978849
sI131
F-0.1412464239902792
ssI109
g8
(tRp120
I128
F0.07194504288844122
sI129
F0.07025472632855416
sI130
F-0.062236576476395786
sI131
F-0.09569768710189354
ssI110
g8
(tRp121
I128
F-0.0387145239685721
sI129
F-0.026856924665899146
sI130
F-0.01355632166237376
sI131
F-0.009524578012636217
ssI111
g8
(tRp122
I128
F0.09741179162780492
sI129
F0.09651811846781025
sI130
F-0.084926450715275
sI131
F-0.12844084212325985
ssI112
g8
(tRp123
I128
F0.10763040000321196
sI129
F0.10502497888873877
sI130
F-0.12257026384915308
sI131
F-0.12352133229202276
ssI113
g8
(tRp124
I128
F-0.13724772080822412
sI129
F-0.13813706666524408
sI130
F0.10341620038890456
sI131
F0.12702364725420304
ssI114
g8
(tRp125
I128
F-0.05293099266283359
sI129
F-0.007895727920117255
sI130
F-0.016041966919571393
sI131
F-0.015162863040962149
ssI115
g8
(tRp126
I128
F-0.13143472929099503
sI129
F-0.12432308692074065
sI130
F0.08527628799041968
sI131
F0.11336980604887939
ssI116
g8
(tRp127
I128
F-0.04828633762648201
sI129
F-0.062303728095033095
sI130
F0.15985418346380378
sI131
F-0.08865589578138938
ssI117
g8
(tRp128
I128
F-0.05267946671972661
sI129
F-0.03133867859532737
sI130
F0.015130677304630575
sI131
F0.023907388536957085
ssI118
g8
(tRp129
I128
F0.1005692697664938
sI129
F0.09370649484946407
sI130
F-0.10720542537115182
sI131
F-0.11334467131185061
ssI119
g8
(tRp130
I128
F0.05548432843138206
sI129
F0.10618972438027877
sI130
F-0.14647940068753929
sI131
F-0.09892322847919413
ssI120
g8
(tRp131
I128
F-0.05073790399662132
sI129
F-0.02369774139050655
sI130
F-0.017616051772422123
sI131
F-0.013592230313891883
ssI121
g8
(tRp132
I128
F0.0706743123793706
sI129
F0.11051904699544561
sI130
F-0.09232297560568385
sI131
F-0.12063691392050181
ssI122
g8
(tRp133
I128
F0.09373422644318816
sI129
F-0.11377427444636212
sI130
F-0.12462066264635918
sI131
F0.10133430863396255
ssI123
g8
(tRp134
I128
F-0.00638471972215924
sI129
F-0.003614422378729815
sI130
F-0.000227227990778317
sI131
F0.009610102684991066
ssI124
g8
(tRp135
I128
F-0.1437066519836143
sI129
F-0.11121221078684049
sI130
F0.12489523222958365
sI131
F0.12513937888624463
ssI125
g8
(tRp136
I128
F-0.05615203181166735
sI129
F-0.015547856966998706
sI130
F-0.012121122960883204
sI131
F-0.004134087186606622
ssI126
g8
(tRp137
I128
F-0.027381979476351532
sI129
F-0.04319618438083737
sI130
F-0.024300829335296415
sI131
F-0.0017591767130907606
ssI127
g8
(tRp138
I128
F0.02181033737082151
sI129
F0.012612450641037996
sI130
F-0.1786975668081699
sI131
F0.060859187456346914
sssS'output_end'
p139
I132
sb.