(innet
Network
p0
(dp1
S'hidden_end'
p2
I128
sS'output_node_count'
p3
I4
sS'L'
p4
I3
sS'hidden_node_count'
p5
I64
sS'input_node_count'
p6
I64
sS'weights'
p7
ccollections
defaultdict
p8
(g8
tp9
Rp10
I0
g8
(tRp11
I64
F-0.005097714904806896
sI65
F-0.01760292732491432
sI66
F0.05945351983408197
sI67
F0.010410678759598455
sI68
F-0.0015063759898547174
sI69
F0.003281474769745188
sI70
F-0.00022092540935743482
sI71
F0.015914926581436322
sI72
F-0.001314696364264678
sI73
F0.009149939119461213
sI74
F0.01570469441092081
sI75
F-0.014350775878306563
sI76
F0.008284460855808072
sI77
F-0.008429596956977547
sI78
F0.02767391994213793
sI79
F0.010835994580080296
sI80
F-0.03484524966291772
sI81
F-0.004948392164197936
sI82
F-0.038727312912368826
sI83
F0.040666147514083546
sI84
F0.07605539374607516
sI85
F0.007777474477649536
sI86
F0.0003517439572246168
sI87
F-0.03546471581072359
sI88
F0.024523392540577792
sI89
F0.008556336420428235
sI90
F-0.009312578135276679
sI91
F-0.0062036643009350965
sI92
F-0.010874060464962563
sI93
F0.013194607577767994
sI94
F-0.0020596634664424383
sI95
F0.005940493794758406
sI96
F-0.009401330332501767
sI97
F-0.011098294870790863
sI98
F-0.005239807762022149
sI99
F-0.021383357874150678
sI100
F0.00903529070619153
sI101
F0.026662529666794475
sI102
F-0.020863876778252313
sI103
F-0.010122815081834925
sI104
F0.0279850168540458
sI105
F0.0011669485240803602
sI106
F0.017040768466440658
sI107
F0.03087626673361408
sI108
F-0.02375432824124658
sI109
F0.0066315999390097816
sI110
F0.007910581137647272
sI111
F-0.019905584482996168
sI112
F0.01211843306311666
sI113
F-0.014428772014350916
sI114
F-0.036315052510044715
sI115
F0.00784597275869758
sI116
F-0.04293253119787398
sI117
F0.01852085335371575
sI118
F-0.028638555179590578
sI119
F-0.016747725879534603
sI120
F-0.0346441680812045
sI121
F-0.00502552111534267
sI122
F0.009665613486701273
sI123
F0.06045147839161637
sI124
F-0.0449767967692175
sI125
F-0.0025801604733587057
sI126
F0.034055346212149694
sI127
F0.01158888162924927
ssI1
g8
(tRp12
I64
F-0.0211335085792544
sI65
F0.0072480658527891
sI66
F0.032775660432034226
sI67
F-0.00339594746259631
sI68
F-0.00810364067921795
sI69
F0.005944836577570263
sI70
F0.02271581413242641
sI71
F0.0065320542300426635
sI72
F0.015007917856661007
sI73
F-0.008057300823032713
sI74
F0.010992137212860267
sI75
F-0.009129876526987012
sI76
F0.0033431551700805213
sI77
F0.016845332758236832
sI78
F0.0019564355672901683
sI79
F-0.008740134858353003
sI80
F0.005702208131489292
sI81
F0.029241946572854935
sI82
F-0.0016971044260840047
sI83
F-0.019740231143039768
sI84
F0.06262731705116506
sI85
F0.023865663428635796
sI86
F-0.02843279437172696
sI87
F-0.010573553380186318
sI88
F-0.0034283451275418466
sI89
F-0.01956429598792817
sI90
F0.00691671069023125
sI91
F-0.008703196311885205
sI92
F-0.01615671091013833
sI93
F0.014885114276041653
sI94
F-0.0019024681292405137
sI95
F-0.0020912558692109595
sI96
F-0.008065422133320524
sI97
F0.007292812634914914
sI98
F0.011731365774807666
sI99
F0.026223454208547246
sI100
F0.0010726266232395731
sI101
F0.017744847577171888
sI102
F0.006243282114795206
sI103
F-0.02215511968868664
sI104
F0.039388213526098864
sI105
F-0.012628137557978772
sI106
F0.0023581184544495203
sI107
F0.029674222662313288
sI108
F-0.0035122879554711516
sI109
F0.017947210106555988
sI110
F0.003016453602556139
sI111
F-0.005172458576156855
sI112
F-0.001569399095922311
sI113
F0.00010527080660354074
sI114
F-0.008696398610230445
sI115
F-0.020628103653951756
sI116
F-0.021957379290333364
sI117
F0.0003474042781717004
sI118
F-0.0020153763018167688
sI119
F-0.00685076284160095
sI120
F-0.04169091164531018
sI121
F0.003576124587047939
sI122
F-0.0018555820003653318
sI123
F0.061316274766154734
sI124
F-0.005659809405391703
sI125
F-0.020982285306378915
sI126
F0.01787857734891749
sI127
F0.00480967678873665
ssI2
g8
(tRp13
I64
F-0.010250638322408176
sI65
F-0.019827374326538087
sI66
F-0.057176887130069284
sI67
F0.0014612424065847235
sI68
F-0.0008150874004467188
sI69
F-0.010746141146088236
sI70
F0.009209612201753356
sI71
F-0.0036525217046619873
sI72
F-0.00477265576408008
sI73
F0.009230734636922056
sI74
F0.01789931600055075
sI75
F0.00996758647863333
sI76
F0.007870981602694367
sI77
F0.0033062769046877157
sI78
F-0.0009747733756748631
sI79
F0.026091919967594204
sI80
F-0.03652209828434369
sI81
F0.02249306609202931
sI82
F0.014540696176256378
sI83
F-0.036008777062773945
sI84
F0.028980005999262547
sI85
F0.0019676086725077878
sI86
F-0.022548368114105086
sI87
F-0.017342747964237966
sI88
F0.013221495719331598
sI89
F-0.016531372424000226
sI90
F0.009938550845783156
sI91
F-0.005375873880032759
sI92
F0.00538796901853336
sI93
F0.013903405015658257
sI94
F0.004264771384084639
sI95
F-0.00115921213800341
sI96
F0.005660192572003764
sI97
F-0.015165368399216362
sI98
F0.0014800555705217285
sI99
F-0.0028149400052284875
sI100
F0.009306053144619719
sI101
F0.006787911676551214
sI102
F-0.011063720787551403
sI103
F-0.038378551947465936
sI104
F0.07027173477821415
sI105
F-0.020994379125454897
sI106
F0.014898741846186975
sI107
F0.018775154409871642
sI108
F-0.02141274804451674
sI109
F0.015877252070989258
sI110
F0.010349708273209447
sI111
F-0.011928206023659493
sI112
F-0.01163349754614596
sI113
F-0.009622260776149819
sI114
F-0.021608603661411614
sI115
F-0.003008193311470978
sI116
F-0.019224200198717015
sI117
F-0.00047299804970971803
sI118
F0.029190041355646377
sI119
F0.00441609391735483
sI120
F-0.03225662817261077
sI121
F-0.017892731384609863
sI122
F-0.014507801595883368
sI123
F0.040887742691930073
sI124
F-0.02012652412199349
sI125
F0.005801305272769788
sI126
F0.00736557174931106
sI127
F-0.002523810306010129
ssI3
g8
(tRp14
I64
F-0.028643725622446714
sI65
F0.011714169171522843
sI66
F-0.06736255900474779
sI67
F0.00015669999172363946
sI68
F0.004726019181449995
sI69
F-0.020914700933991864
sI70
F0.0033091275408550875
sI71
F-0.012501521972111171
sI72
F-0.002052379529033643
sI73
F0.001827077125636417
sI74
F-0.0014685748638641103
sI75
F-0.004149757033772506
sI76
F-0.0020564960248656344
sI77
F-0.023371400263648368
sI78
F0.017595057506804897
sI79
F0.01833314670226018
sI80
F-0.02604412985383977
sI81
F0.007790310903937441
sI82
F-0.004100627969330956
sI83
F-0.021266861949023528
sI84
F0.034366263615735304
sI85
F0.032569620417748975
sI86
F-0.006944049631556816
sI87
F-0.009679877436854816
sI88
F0.01810862840294586
sI89
F-0.006551747118948025
sI90
F-0.004643542505746876
sI91
F-0.007086940166194822
sI92
F-0.0025880893328578286
sI93
F-0.015723408187097637
sI94
F0.0023964036781453364
sI95
F0.0009655409859809398
sI96
F-0.009019422314436228
sI97
F-0.015137948219586785
sI98
F0.012553535622627496
sI99
F-0.0037521644764262614
sI100
F0.01773522674088956
sI101
F0.0038383670024504392
sI102
F0.0016880200786502076
sI103
F-0.03417065996037526
sI104
F-0.015093605096348595
sI105
F-0.011859454041803288
sI106
F-0.0058458490041534295
sI107
F-0.004768513113687881
sI108
F-0.02723488844523724
sI109
F-0.01818526615869211
sI110
F-0.008360595027727612
sI111
F0.01680461839798188
sI112
F-0.004992503510050496
sI113
F0.018464602610166806
sI114
F-0.023397593700829944
sI115
F-0.0013780356086138766
sI116
F-0.013328550315461422
sI117
F0.0066801927319192125
sI118
F0.011390932707818645
sI119
F-0.018852682865966364
sI120
F0.0023461102754500094
sI121
F-0.0173636457992008
sI122
F0.00443217955673603
sI123
F0.04192278243781261
sI124
F-0.03186860985197064
sI125
F0.011579034807760288
sI126
F0.047761229558549126
sI127
F0.0077415608570717345
ssI4
g8
(tRp15
I64
F-0.017898961796552558
sI65
F-0.002420258057268175
sI66
F-0.0255095584796743
sI67
F0.004277352976684997
sI68
F0.008368906206028363
sI69
F-0.0007485733095177388
sI70
F-0.01949014830340542
sI71
F0.00661084799428901
sI72
F-0.0039005354288697927
sI73
F-0.0016722117851644866
sI74
F-0.01264770072345977
sI75
F0.01010689316336222
sI76
F-0.0052868542838440105
sI77
F-0.005376809926528009
sI78
F0.012037673476801075
sI79
F0.030495166002870996
sI80
F-0.03733149584320723
sI81
F-0.008116309502512341
sI82
F0.013470063530242207
sI83
F0.03336349523961875
sI84
F0.04739810945362061
sI85
F0.023510019645748982
sI86
F-0.023909747593734328
sI87
F-0.0066374686746646155
sI88
F-0.012693152001406466
sI89
F-0.005397033046091446
sI90
F-0.013487646075006571
sI91
F0.00109858547721166
sI92
F0.0012495827159004322
sI93
F0.003952894315986538
sI94
F-0.032552516658248376
sI95
F0.021104082617164163
sI96
F0.012749683388814045
sI97
F-0.03331331734333771
sI98
F-0.00959895699445996
sI99
F-0.005676790460845519
sI100
F0.02931734567186751
sI101
F-0.0008934731242030737
sI102
F0.0050325485534545925
sI103
F-0.050192627090452045
sI104
F-0.07122855105022076
sI105
F0.002376857003748446
sI106
F-0.0161030274878747
sI107
F-0.0036586142496295897
sI108
F-0.024399075188577285
sI109
F-0.02225259097938897
sI110
F0.007625097834171925
sI111
F-0.009897018875250834
sI112
F-0.0024604826898101556
sI113
F-0.009465053955206772
sI114
F0.019878183657792946
sI115
F0.0026206936958151103
sI116
F-0.003927004867315022
sI117
F0.0016143577383412192
sI118
F-0.015114954270674547
sI119
F-0.018122925987122014
sI120
F-0.010233750633178215
sI121
F-0.007001830134411495
sI122
F0.0036834834998496742
sI123
F0.04401093111604475
sI124
F-0.02813622580787391
sI125
F0.00530462612779226
sI126
F0.0074447248042556115
sI127
F-0.001183822717703119
ssI5
g8
(tRp16
I64
F0.004035675042102325
sI65
F-0.006876481155653781
sI66
F0.025080271166789615
sI67
F-0.0013219194948295222
sI68
F-0.028723222542735263
sI69
F-0.00563893452275589
sI70
F0.009383476058569668
sI71
F-0.017736656882123888
sI72
F0.011513005826152637
sI73
F-0.0032792491548578407
sI74
F0.009783121389726637
sI75
F0.0071911731406728695
sI76
F-0.01425078861614637
sI77
F-0.0037116013458669953
sI78
F0.01754737243665713
sI79
F0.025793384002550723
sI80
F-0.025282896258172746
sI81
F-0.01627811199468085
sI82
F-0.01619639273340633
sI83
F0.02156220144526519
sI84
F0.04800669998077906
sI85
F0.022999326413642728
sI86
F-0.026192630541559198
sI87
F-0.006678846610277317
sI88
F-0.026242889767026288
sI89
F-0.0024561081641519835
sI90
F-0.004080604553721715
sI91
F-0.0060557040431859525
sI92
F0.012737243364244593
sI93
F0.008850657083519248
sI94
F-0.043902544785578625
sI95
F0.0017967266729510567
sI96
F0.021393019680792793
sI97
F0.003485175864429249
sI98
F-0.009409614904020454
sI99
F-0.011363402153543655
sI100
F0.019127012248813774
sI101
F0.021385735074650518
sI102
F0.006313270333315245
sI103
F-0.040132557605455615
sI104
F-0.024949976318230153
sI105
F-0.0019047550285862767
sI106
F0.00279469907281109
sI107
F-0.016400463398991948
sI108
F-0.005709634428200753
sI109
F-0.00916286896175397
sI110
F-0.007253581506033095
sI111
F-0.0014572062363101452
sI112
F-0.0070988715128794235
sI113
F0.01990480386300939
sI114
F-0.007537383546064001
sI115
F0.0040876276047072885
sI116
F0.023564593945760746
sI117
F0.012762346169098385
sI118
F0.019840335338319713
sI119
F-0.0180261316003847
sI120
F-0.014232059559062859
sI121
F-0.005073912881946094
sI122
F0.006161960027890494
sI123
F0.028757256612436846
sI124
F-0.031823771367473774
sI125
F-0.011061181202878271
sI126
F-0.05466503277312992
sI127
F0.01482893081471552
ssI6
g8
(tRp17
I64
F-0.001463899896204088
sI65
F0.009081818892270372
sI66
F0.0273379385716377
sI67
F-0.01722439356807377
sI68
F-0.008450636062992548
sI69
F0.021703917139440927
sI70
F-0.0074663831023026785
sI71
F0.013913089273029646
sI72
F0.0005613881947044865
sI73
F0.011391673791253847
sI74
F-0.004370485053447887
sI75
F-0.014556906395993678
sI76
F-0.009640901011307122
sI77
F-0.015037967407985867
sI78
F0.0037747990809152013
sI79
F0.021324821228346547
sI80
F-0.049763187482334256
sI81
F-0.00452558067201286
sI82
F0.006932823727982421
sI83
F0.014711856903672833
sI84
F0.03922792688982901
sI85
F0.007861695998324716
sI86
F-0.027422579819128365
sI87
F-0.009765422737629962
sI88
F-0.010271330899496955
sI89
F-0.006155294373238899
sI90
F-0.0069261652438165336
sI91
F0.0069133739472647115
sI92
F0.005863875759283022
sI93
F0.0048692472189111125
sI94
F-0.005454244586854373
sI95
F0.007292200838495225
sI96
F-0.005046745887653982
sI97
F0.021822330716657207
sI98
F-0.0012826745052817725
sI99
F-0.00490459824307455
sI100
F0.031351425171741755
sI101
F0.012360976322837183
sI102
F-0.010224771351128379
sI103
F-0.026533928083986056
sI104
F-0.04012198311636628
sI105
F0.001666301377666889
sI106
F-0.004291166011374947
sI107
F-0.021094526101541656
sI108
F0.012574875217115818
sI109
F-0.011603581268153185
sI110
F-0.010838800004372954
sI111
F0.0004742118377665478
sI112
F-0.0061271607071297935
sI113
F-0.008789397406385369
sI114
F0.0041444021148075915
sI115
F0.011572852430813721
sI116
F0.03390360857506994
sI117
F0.0053671329835094485
sI118
F-0.0019250571948192558
sI119
F0.005327868767278764
sI120
F0.0017984678714061545
sI121
F0.0017761596448241073
sI122
F-0.006731882400539049
sI123
F0.03167636555892841
sI124
F-0.015231680341602015
sI125
F0.0009440762339910227
sI126
F-0.03417162630005348
sI127
F0.016726910355931292
ssI7
g8
(tRp18
I64
F-0.025095261696700483
sI65
F0.02028762142936683
sI66
F0.00032425265566983513
sI67
F-0.0038374003255653042
sI68
F-0.019660962016116477
sI69
F-0.0006310653302611583
sI70
F-0.004250375219634056
sI71
F0.010769792549833367
sI72
F0.007786972291582849
sI73
F-0.01160868947394888
sI74
F0.01576005771490451
sI75
F-0.02100181336670853
sI76
F-0.008872130011212056
sI77
F-0.0326788651201824
sI78
F0.009827932077777804
sI79
F0.04000901178460181
sI80
F-0.054628918490826815
sI81
F-0.004856809504391517
sI82
F0.0533744978222624
sI83
F-0.04251558629095487
sI84
F0.04872424925177099
sI85
F0.04212373639580601
sI86
F-0.014299527537282888
sI87
F0.0019332910030599962
sI88
F0.0005507600356468065
sI89
F0.029199499737443818
sI90
F0.017371102464839087
sI91
F-0.011647591275229434
sI92
F0.010531660112967047
sI93
F0.0029555850974089127
sI94
F0.06354941634631633
sI95
F0.011134207985506404
sI96
F-0.0018289571821964948
sI97
F0.007517443570963935
sI98
F0.0031926246528000417
sI99
F-0.006099753206954654
sI100
F-0.0035211185588608297
sI101
F0.02012690596530697
sI102
F0.004730257716421959
sI103
F-0.015727342459729156
sI104
F0.0050003173149390815
sI105
F0.012452760856830551
sI106
F-0.032633477831468215
sI107
F-0.03558883507906275
sI108
F0.038332171976824876
sI109
F-0.0028117475956010137
sI110
F0.004610775126575452
sI111
F-0.0010532377967214146
sI112
F0.007928087166637359
sI113
F-0.007429463656442383
sI114
F0.011355919445120589
sI115
F-0.0008872488717121727
sI116
F0.04088687748626646
sI117
F-0.0027982033805749877
sI118
F-0.018194369487095716
sI119
F-0.0046922746453294745
sI120
F-0.0010599518820301312
sI121
F-0.0011872310199537318
sI122
F0.0033342245894217156
sI123
F0.04118257258677718
sI124
F-0.030622258189389955
sI125
F-0.011338158288613717
sI126
F-0.02284996722513449
sI127
F-0.006016791352007822
ssI8
g8
(tRp19
I64
F-0.01562760816130967
sI65
F0.0030692167576015054
sI66
F0.06176464345627671
sI67
F0.012321126440971556
sI68
F-0.006957260128652926
sI69
F-0.0003719049439551274
sI70
F0.032863558323106876
sI71
F0.00315959437775478
sI72
F-0.005512587188142866
sI73
F0.012061114737361005
sI74
F0.02409496703203972
sI75
F0.01465774599616239
sI76
F-0.0016314720426512984
sI77
F-0.010706558369858555
sI78
F-0.016395797665409835
sI79
F0.01674637987581236
sI80
F-0.0404681800326503
sI81
F-0.021642831392156135
sI82
F-0.03664102479240048
sI83
F0.025356898064233763
sI84
F0.0009771675633638308
sI85
F0.015269555274014699
sI86
F-0.019930272855458443
sI87
F-0.014900246528096113
sI88
F-0.007712198934805968
sI89
F0.0035831554438927847
sI90
F0.012131963122457073
sI91
F0.009573799438929723
sI92
F0.01250881540119721
sI93
F-0.007611243111657758
sI94
F-0.020953611544158708
sI95
F0.011645768293411216
sI96
F0.0072379891508122345
sI97
F0.0034402417746377647
sI98
F0.0074167818452630305
sI99
F0.0019301418529697652
sI100
F2.1369085597010594e-07
sI101
F0.0019740278706657437
sI102
F0.014700351130611113
sI103
F0.037407612442390444
sI104
F-0.0046731359616720945
sI105
F-0.033061622263433774
sI106
F0.012185774280884997
sI107
F0.026532556845282242
sI108
F-0.0030039602132797
sI109
F0.010432244868185496
sI110
F-0.004459018976583544
sI111
F-0.010960939610810318
sI112
F0.0008059915216532134
sI113
F0.009029840383102825
sI114
F-0.005429779974676398
sI115
F-0.003425844801417431
sI116
F-0.020793975993553225
sI117
F-0.008380859402479304
sI118
F-0.02686077210222818
sI119
F-0.018330102802264523
sI120
F-0.03184364453469779
sI121
F-0.008821858290382059
sI122
F0.010186996799554236
sI123
F-0.008472543301902533
sI124
F-0.018870822629388738
sI125
F-0.010175583877180134
sI126
F0.029990003465571003
sI127
F-0.008534968319956452
ssI9
g8
(tRp20
I64
F-0.006552596669992262
sI65
F-0.0016387274558551808
sI66
F-0.006972628066193935
sI67
F0.0145794261631122
sI68
F0.0004103487206998383
sI69
F-0.008308383151281488
sI70
F0.0028275963755299656
sI71
F-0.005148687959785374
sI72
F-0.007332266219448538
sI73
F-0.00301885073266389
sI74
F0.014263570733587243
sI75
F-0.002057283906590477
sI76
F-0.00305514192062853
sI77
F-0.01226838837687443
sI78
F0.0003907687245072863
sI79
F0.0018669409585439828
sI80
F-0.037984721975371796
sI81
F0.027237006501648838
sI82
F-0.0007865727889754754
sI83
F-0.01132584386657081
sI84
F0.006263363817407946
sI85
F0.004161017835917828
sI86
F-0.006285141649878432
sI87
F0.0161360990540759
sI88
F-0.0131261028394749
sI89
F0.003263424713215082
sI90
F0.014520627601851811
sI91
F-0.0024728305631717927
sI92
F0.006730586395927966
sI93
F0.00517913393160635
sI94
F0.015518803123804789
sI95
F-0.0003334458737942534
sI96
F-0.012820627437026551
sI97
F0.009982587189160138
sI98
F-0.008236465441912507
sI99
F-0.010908080346081924
sI100
F0.00021317910645090224
sI101
F0.01437997288338027
sI102
F-0.0078902234237476
sI103
F0.03861088727005401
sI104
F0.01793563335356297
sI105
F0.008849347596416231
sI106
F-0.007625736736876561
sI107
F0.010058324422493834
sI108
F-0.010292721458799592
sI109
F0.0025035216891059623
sI110
F0.005291047102482557
sI111
F0.004946703347905718
sI112
F0.004785726302960076
sI113
F0.005343036950203311
sI114
F0.0036387663709792563
sI115
F0.0009013387492915076
sI116
F-0.012592197449693256
sI117
F-0.00437048588173082
sI118
F-0.007885709888450072
sI119
F0.016454446430757254
sI120
F-0.021329801099185603
sI121
F0.005126276426909855
sI122
F-0.015930412851773837
sI123
F-0.0037459354117170994
sI124
F-0.003545756412423664
sI125
F0.007827086296387963
sI126
F-0.00031500954967382403
sI127
F-0.015488240899645254
ssI10
g8
(tRp21
I64
F0.015536358601126496
sI65
F-0.010243160741321842
sI66
F-0.037425818660134336
sI67
F0.0012380938836042044
sI68
F-0.006731338852607928
sI69
F-0.019477779838359938
sI70
F-0.009851075317169384
sI71
F-0.0037275317127092563
sI72
F-0.00242355461770704
sI73
F-0.01365927354762697
sI74
F0.004092212816981229
sI75
F0.004664486931357222
sI76
F-0.006004104296709958
sI77
F-0.0011152088950020062
sI78
F0.00634321545622442
sI79
F0.002368384816317297
sI80
F0.004534609556365651
sI81
F-0.017831495051438325
sI82
F0.02099939208013803
sI83
F-0.01278657372089474
sI84
F-0.006548910963929878
sI85
F-0.02493781979631656
sI86
F0.0025284981665386714
sI87
F0.010824073003242434
sI88
F-0.005051495765032352
sI89
F-0.019323903747048853
sI90
F-0.008441783553279405
sI91
F-0.0032121971533294706
sI92
F0.008493643737441025
sI93
F0.004055357124797198
sI94
F0.01110076567187429
sI95
F-0.007815385554638147
sI96
F-0.0284159407475962
sI97
F-0.009132457737026763
sI98
F-0.0222503782180909
sI99
F-0.001921636172389806
sI100
F0.0015404669931403923
sI101
F0.007696956176345324
sI102
F-0.018069422712711208
sI103
F0.033191774392254944
sI104
F0.04941778337951541
sI105
F0.0013826456828771407
sI106
F0.0004679287897382639
sI107
F-0.00632325341981297
sI108
F0.007808768405864132
sI109
F0.0037523591741720247
sI110
F-0.006655886679474292
sI111
F-0.00611469815224823
sI112
F0.006430375713011105
sI113
F-0.006321720619030744
sI114
F0.014630028907521282
sI115
F0.008585063311595252
sI116
F0.0013865705238165027
sI117
F-0.0010364536361939724
sI118
F0.015340609369741263
sI119
F0.02000501489559395
sI120
F-0.015481783445016918
sI121
F-0.001470122666083326
sI122
F-0.006342831321693922
sI123
F0.004105174549663927
sI124
F-0.023215698994077414
sI125
F-0.010251025394159964
sI126
F-0.016046164612290238
sI127
F-0.004769593955570846
ssI11
g8
(tRp22
I64
F0.029667779870079136
sI65
F-0.0002214137560462629
sI66
F-0.043428923979277924
sI67
F-0.014568030827603445
sI68
F0.007644572465457437
sI69
F-0.001268687071966193
sI70
F0.003706730230616055
sI71
F-0.004671003653382019
sI72
F0.02076346223703784
sI73
F0.00952747819243572
sI74
F-0.008184274574511994
sI75
F-0.0007664422432870739
sI76
F0.009170595167573512
sI77
F0.013705203690583045
sI78
F-0.0015047650253707647
sI79
F0.021120000207442546
sI80
F-0.017109240844196415
sI81
F0.0028842129087650954
sI82
F0.017878982650418075
sI83
F-0.006416529933606885
sI84
F-0.017347932005768316
sI85
F-0.013561424258541453
sI86
F-0.012332024878852826
sI87
F-0.02237307006373412
sI88
F0.0021605976165504377
sI89
F-0.005074068407302049
sI90
F0.0033801342765862373
sI91
F0.010809138415925451
sI92
F0.003288384260951098
sI93
F0.0028805681238922446
sI94
F-0.014223840713916296
sI95
F-0.0035967563678201793
sI96
F0.004130828519975464
sI97
F-0.003850722625066617
sI98
F0.01064292622911416
sI99
F-0.008010674008507083
sI100
F0.008874215698935813
sI101
F0.015562963800119588
sI102
F-0.001238865510606246
sI103
F0.017454580513338622
sI104
F-0.024336966048645246
sI105
F-0.00043967297007209253
sI106
F-0.01644443456445274
sI107
F0.0028762956087350394
sI108
F-0.010157571701737433
sI109
F-0.0004250402807976836
sI110
F0.012825086645275801
sI111
F0.008885444021053495
sI112
F-0.006146781712264531
sI113
F0.013459506247678317
sI114
F-0.0017725696005507392
sI115
F-0.0019096510809114516
sI116
F-0.01862885105060956
sI117
F-0.0028205548841283277
sI118
F0.015199373482480183
sI119
F0.004459952999151085
sI120
F-0.004173195563525918
sI121
F0.011178841967310534
sI122
F-0.005083359947098765
sI123
F-0.002210619676736235
sI124
F0.0019805290483638693
sI125
F-0.01140632348444727
sI126
F0.03823276336464422
sI127
F-0.013385604054095923
ssI12
g8
(tRp23
I64
F0.005523678423209762
sI65
F-0.027262023762666215
sI66
F-0.015752367325429586
sI67
F0.0018658129497872832
sI68
F0.01906725226131716
sI69
F-0.003045172522721638
sI70
F0.01701795255763089
sI71
F-0.007101324383301931
sI72
F-0.0025470112458786036
sI73
F-0.0021924025983063224
sI74
F0.007083519820216226
sI75
F-0.005317674520475539
sI76
F-0.0011186518719183355
sI77
F-0.014085374930368915
sI78
F0.0037885825261148266
sI79
F0.009712680735803496
sI80
F-0.015896155158296666
sI81
F0.0026454738491872255
sI82
F-0.0049541957857493915
sI83
F0.005112978622593073
sI84
F0.002389664001526813
sI85
F-0.017568897692071567
sI86
F0.004038924688795333
sI87
F-0.009067426497945905
sI88
F0.001672161963335204
sI89
F-0.012848119164911534
sI90
F0.013900026611680567
sI91
F0.0008340172066043331
sI92
F-0.00456491100290935
sI93
F-0.009316725994098581
sI94
F-0.008465166169430655
sI95
F0.0022443518218776856
sI96
F-0.008629085000082522
sI97
F0.0069023597644354675
sI98
F0.0030319986295903236
sI99
F-0.0010067651744627827
sI100
F0.0005725366284224222
sI101
F-0.003045253114368885
sI102
F0.0009365919590966528
sI103
F0.018587019330059774
sI104
F-0.047334445958043286
sI105
F0.0013135874368718882
sI106
F0.0023769970434360404
sI107
F0.025859492382318144
sI108
F-0.016036613817093863
sI109
F0.014658930056329067
sI110
F-0.004105540516352043
sI111
F0.0027067249014513925
sI112
F3.5075065815196208e-06
sI113
F-0.003021749718029665
sI114
F0.006376041988683739
sI115
F0.0065719820685788384
sI116
F-0.003956226247400891
sI117
F0.005002686320418182
sI118
F-0.024589556677728823
sI119
F-0.0021810489652964965
sI120
F0.0018974871519677858
sI121
F-0.007596519462351483
sI122
F0.007842057109872194
sI123
F-0.005004985621994022
sI124
F-0.005020380216320512
sI125
F0.006634203910286715
sI126
F0.00659941805266876
sI127
F-0.017362378222663042
ssI13
g8
(tRp24
I64
F0.005679457215107495
sI65
F-0.002487904117590826
sI66
F0.015215455441419218
sI67
F-0.003708193168701601
sI68
F0.004839341179763795
sI69
F0.00996650868947465
sI70
F-0.012304991339484114
sI71
F0.003964255994059076
sI72
F-0.003106369007481901
sI73
F-0.02100438940629182
sI74
F-0.0007799212172718723
sI75
F0.0118027849551129
sI76
F-0.01223428985239977
sI77
F-0.003834656443026985
sI78
F-0.00555163471047029
sI79
F0.008381532748888875
sI80
F-0.032945976262620066
sI81
F0.009756706657618658
sI82
F-0.03101090451312511
sI83
F0.028065206482606613
sI84
F-0.02021722073530512
sI85
F-0.009538432876021744
sI86
F-0.011350593740284303
sI87
F0.009873415315925532
sI88
F-0.00863583506905482
sI89
F-0.02381299692320072
sI90
F0.00912844087326927
sI91
F-0.004855190197346271
sI92
F0.012254303424337516
sI93
F0.0030615519101755227
sI94
F-0.04208300428956038
sI95
F0.02026260754080119
sI96
F0.005447484387236306
sI97
F0.009630074496238587
sI98
F0.0042832741212416306
sI99
F-0.014762144965160373
sI100
F0.017095794470505885
sI101
F0.0015223407605605575
sI102
F-0.008136839018195969
sI103
F0.024209305506532115
sI104
F-0.017148445008932492
sI105
F-0.01548159704493718
sI106
F0.007556563438507964
sI107
F-0.014757976657633077
sI108
F0.016232513948289416
sI109
F0.0030343558971122173
sI110
F-0.004385853007178776
sI111
F-0.004741896913467694
sI112
F0.004109109618678375
sI113
F-0.015355596740202771
sI114
F-0.006614165584743634
sI115
F0.004033526286883129
sI116
F0.0197840031978038
sI117
F0.0009116063806877864
sI118
F0.018866905200278544
sI119
F-0.0012343102461321897
sI120
F0.01503583412688741
sI121
F-0.004308021297141257
sI122
F-0.006250161654837025
sI123
F-0.0037276233638727342
sI124
F0.01500659530232077
sI125
F-0.012999756769506904
sI126
F-0.014614504473224006
sI127
F-0.016931393644022474
ssI14
g8
(tRp25
I64
F-0.023536585327574647
sI65
F0.011773549404369369
sI66
F0.02164534344955362
sI67
F-0.006426464362380306
sI68
F-0.009081046303650671
sI69
F0.017924873863363264
sI70
F-6.299163263085292e-05
sI71
F-0.0020175968767844783
sI72
F-0.005178926217568129
sI73
F0.012273452036641286
sI74
F0.015423453518995787
sI75
F-0.0040415292993166915
sI76
F-0.0013837827916138247
sI77
F-0.016833269889314682
sI78
F-0.023591211002983378
sI79
F0.03229064159187311
sI80
F-0.022893894189276735
sI81
F-0.013381272558257724
sI82
F-0.011472835824254065
sI83
F0.011297440164852679
sI84
F0.003472883797351087
sI85
F0.0051148150024159225
sI86
F-0.01738104675184349
sI87
F0.006080183002166811
sI88
F-0.012395286520439702
sI89
F-0.023563147330717387
sI90
F9.78846369907967e-05
sI91
F0.00045859362090743764
sI92
F0.0024526421563053364
sI93
F-0.014243567929965234
sI94
F-0.007139229971474126
sI95
F0.0010714957148024772
sI96
F-0.003795231317479928
sI97
F0.0030790074359638227
sI98
F-0.005236963795525628
sI99
F0.008724225648305191
sI100
F-0.008666705445610516
sI101
F0.006545829915537143
sI102
F-0.003950932765728834
sI103
F0.019359872194167183
sI104
F-0.008754305499746217
sI105
F0.02064726764151068
sI106
F0.00461225504733198
sI107
F-0.013281736980823735
sI108
F0.012754752126269878
sI109
F0.008054839672598938
sI110
F0.003983672283475109
sI111
F0.02120053545099206
sI112
F0.007413312237053249
sI113
F0.0036805405051762463
sI114
F0.005453942700228617
sI115
F0.009749000570966606
sI116
F0.022268404567288326
sI117
F0.006216113306754479
sI118
F0.02255892207464777
sI119
F-0.013702808515503812
sI120
F-0.003131696812003027
sI121
F-0.0039436316668717605
sI122
F0.01706836165906208
sI123
F0.003214880890452593
sI124
F0.015383896364012944
sI125
F0.0034278891192133696
sI126
F-0.011956397670298049
sI127
F-0.033502125958014176
ssI15
g8
(tRp26
I64
F-0.019372603700402224
sI65
F-0.00042429399023912265
sI66
F0.007220469920184746
sI67
F-0.005860781478976231
sI68
F-0.012939780734361507
sI69
F-0.002950193066297881
sI70
F0.011790012885816797
sI71
F-0.011616830325322399
sI72
F-0.016791327457312693
sI73
F0.013881238077450826
sI74
F-0.0031781456454215793
sI75
F-0.020958855906729676
sI76
F0.004054814581697372
sI77
F-0.018204528223971134
sI78
F-0.021624088037564874
sI79
F0.04190780039483998
sI80
F-0.055928096415815476
sI81
F-0.007394459816684537
sI82
F0.03976922984598412
sI83
F-0.03634913167720254
sI84
F0.022660683156359558
sI85
F-0.005350938663383127
sI86
F-0.015268598613983443
sI87
F-0.022554408356575982
sI88
F-0.011130276986633922
sI89
F0.04266560160092765
sI90
F0.007955166119309798
sI91
F-0.007867102949959674
sI92
F0.002302194114727322
sI93
F-0.004842958269333573
sI94
F0.04872374618750284
sI95
F-0.02835588356121461
sI96
F-0.017941760921662383
sI97
F0.009084155908083631
sI98
F-0.012232448887804965
sI99
F-0.009753597012843609
sI100
F-0.006198119627769747
sI101
F0.00941188584901387
sI102
F-0.013255706482805798
sI103
F0.02862044001166215
sI104
F0.020228590262185087
sI105
F0.011601088715369998
sI106
F-0.007117821076468225
sI107
F-0.008029351101547687
sI108
F0.024198646302627032
sI109
F0.008708107168314175
sI110
F0.013235674759067626
sI111
F-0.012970692301507679
sI112
F-0.007869427522971253
sI113
F0.013180071095176962
sI114
F0.004073099812249904
sI115
F0.007840334797323645
sI116
F0.020008756592083198
sI117
F0.016363503473995386
sI118
F-0.021026417844236905
sI119
F-0.030197309156302615
sI120
F0.0033609762319241885
sI121
F-0.01133771750972542
sI122
F-0.0189237004868225
sI123
F0.00953020794042544
sI124
F-0.0017879458162392721
sI125
F0.016136653661607755
sI126
F-0.014551429288875234
sI127
F-0.04586790400619793
ssI16
g8
(tRp27
I64
F-0.0051825861462564855
sI65
F-0.0076262983510968245
sI66
F0.05642515410730915
sI67
F-0.005136532309247977
sI68
F0.005560753226507008
sI69
F0.008153577651288007
sI70
F0.03366545763069106
sI71
F-0.0012137829282629037
sI72
F0.01523147025644515
sI73
F-0.015475100300942742
sI74
F-0.006021809103300865
sI75
F0.015305625447473733
sI76
F0.005328807297059241
sI77
F-0.010082764655272818
sI78
F-0.00458399300534293
sI79
F0.009624085917047928
sI80
F-0.007701225324912341
sI81
F-0.021604195256718202
sI82
F-0.030462004268110535
sI83
F0.03790390695496115
sI84
F0.00246981735970314
sI85
F-0.010452185703293251
sI86
F-0.019864367469291936
sI87
F-0.01492509088288234
sI88
F0.010319640437229712
sI89
F0.003422782144020417
sI90
F0.010061289901689035
sI91
F0.00968694678717961
sI92
F0.004644077956151844
sI93
F-0.03459968249535184
sI94
F-0.0037399114529161137
sI95
F-0.009426792472215478
sI96
F-0.014846736851114747
sI97
F-0.026841296869497284
sI98
F-0.00481693819094942
sI99
F-0.014509069871504033
sI100
F-0.018804808217209156
sI101
F-0.023199014484273892
sI102
F0.002289371909675122
sI103
F0.05816071823541157
sI104
F0.01284362884931903
sI105
F0.008078229663499773
sI106
F0.017420059171287756
sI107
F0.01615586502020622
sI108
F-0.008108737953363837
sI109
F-0.00369914338803854
sI110
F-0.019156393749335737
sI111
F-0.003762554569692378
sI112
F0.0024624799865725763
sI113
F0.00028519654407858
sI114
F-0.016492448825714875
sI115
F0.012262327818264324
sI116
F-0.005820311013965233
sI117
F0.004924103642029708
sI118
F-0.02066995592030833
sI119
F-0.001972514131718567
sI120
F-0.021341308027845503
sI121
F0.01080891156713744
sI122
F-0.02281228768696391
sI123
F-0.03360988398217466
sI124
F0.00042229913568584744
sI125
F0.014086699503194767
sI126
F0.032602977167884496
sI127
F-0.022974208342236672
ssI17
g8
(tRp28
I64
F-0.00038028268785570655
sI65
F-0.0045839869551508716
sI66
F-0.0016425365979322894
sI67
F0.004112705797443283
sI68
F-0.001605738557233523
sI69
F-0.022425792098910532
sI70
F0.03813613896434979
sI71
F-0.0020624434507712426
sI72
F0.006097880477960461
sI73
F0.005458942856636214
sI74
F0.007603651495673187
sI75
F-0.00502770997168801
sI76
F0.00018393618410992194
sI77
F0.0010793882268703054
sI78
F-0.002945933185594217
sI79
F0.017272353714270466
sI80
F0.011319313164732676
sI81
F0.020445143909536664
sI82
F0.0012779057535817816
sI83
F-0.007159459692730992
sI84
F-0.01014557862206967
sI85
F-0.013381985341719166
sI86
F-0.013673147473593822
sI87
F0.006708610329491207
sI88
F-0.0021679456108739115
sI89
F-0.0026304993689891375
sI90
F-0.02888758979775882
sI91
F-0.011371504367985927
sI92
F-0.01805293273774638
sI93
F-0.005349786801389796
sI94
F0.00471163322824498
sI95
F-0.003477611566478168
sI96
F-0.013560380013884696
sI97
F-0.007616996444396006
sI98
F-0.01716507005695083
sI99
F-0.007048676191023862
sI100
F-0.009223499252939187
sI101
F-0.011409111103243144
sI102
F0.001713680024116988
sI103
F0.04798412466726002
sI104
F0.02218884769533225
sI105
F-0.006647723091461885
sI106
F-0.0029738846664768745
sI107
F0.016809313029912346
sI108
F0.0023894744009266755
sI109
F-0.003809010260120921
sI110
F0.005767448489802798
sI111
F-0.013051682230499448
sI112
F-0.01100873913821676
sI113
F-0.009951059628039015
sI114
F0.015667048818551483
sI115
F-0.005531775270164478
sI116
F-0.0009734046935808402
sI117
F0.009821686373520854
sI118
F0.004127988036678501
sI119
F-0.0052020311227642824
sI120
F-0.015987023604709945
sI121
F0.01489620475745832
sI122
F-0.0070990683147898435
sI123
F-0.04359116297842991
sI124
F0.0014484409325503272
sI125
F0.017676659572780216
sI126
F-0.023704068940529392
sI127
F-0.004203093641383868
ssI18
g8
(tRp29
I64
F0.0009956582556640418
sI65
F0.008194468847348755
sI66
F-0.03828873153059559
sI67
F0.01770908038458363
sI68
F-0.0069797061021614
sI69
F-0.00930345580408739
sI70
F0.04140734578420763
sI71
F-0.0037947631311246485
sI72
F0.008516940935015623
sI73
F-0.016567967613728484
sI74
F0.008085011754604366
sI75
F0.03188420884430058
sI76
F-0.000817921814156155
sI77
F0.012726670606229762
sI78
F-0.0011486939512832465
sI79
F-0.009126531258185055
sI80
F-0.0007068291057861273
sI81
F0.022115353505885976
sI82
F0.006498887606477874
sI83
F-0.04778266453545923
sI84
F-0.008344157485576369
sI85
F-0.015282280038626184
sI86
F-0.003979868246698878
sI87
F0.003703415664508352
sI88
F0.005266225760426827
sI89
F0.002228076758451218
sI90
F-0.0008151343896671138
sI91
F0.005013554635407042
sI92
F0.008470987875961462
sI93
F-0.01914553922665917
sI94
F4.0167432961400086e-05
sI95
F0.0030983723951227287
sI96
F-0.029516928710108973
sI97
F-0.0065190802608976256
sI98
F-0.009584607707612191
sI99
F-0.0012812043992533808
sI100
F0.004465947822512216
sI101
F-0.007036982886613496
sI102
F-0.004002883091119237
sI103
F0.028200377534210317
sI104
F0.05102984932649057
sI105
F0.00878810665145115
sI106
F0.009076405884526987
sI107
F0.012638521326533621
sI108
F-0.013996462164870906
sI109
F0.016396970351855757
sI110
F-0.00524193601029213
sI111
F0.0016169489684868142
sI112
F0.005176078615322624
sI113
F-0.004884670228964214
sI114
F-0.0013891022129234284
sI115
F-0.0033756611893465253
sI116
F-0.022830040373493177
sI117
F-0.025274411342940662
sI118
F0.038646828261524734
sI119
F-0.005789677403479543
sI120
F-0.009346632979037794
sI121
F0.014150541722730428
sI122
F-0.003495249349479379
sI123
F-0.03631637608924765
sI124
F-0.006400058694051965
sI125
F-0.002888758559977086
sI126
F-0.006054411769839867
sI127
F-0.015352064268529574
ssI19
g8
(tRp30
I64
F0.006418982087408136
sI65
F0.004239726136372166
sI66
F-0.03200807256132486
sI67
F0.02853021120376745
sI68
F0.016501784018241913
sI69
F-0.00493148008414652
sI70
F0.009020968980238266
sI71
F0.0015187671765802802
sI72
F0.005843827210337083
sI73
F-0.01265418999981037
sI74
F0.01706685691294899
sI75
F-0.0003502068227140208
sI76
F0.004972672337550897
sI77
F-0.0021850148844549215
sI78
F-0.003324533619669446
sI79
F0.024198107305420012
sI80
F0.0023112518617726
sI81
F-0.0038663401275473765
sI82
F0.0014680731153469283
sI83
F-0.00980356245768009
sI84
F-0.005590868484778699
sI85
F-0.010623529117028126
sI86
F0.006779167079416056
sI87
F0.008059884471873951
sI88
F-0.000995176550511622
sI89
F-0.006663103282016443
sI90
F-0.026888367430189304
sI91
F-0.0005275863166741639
sI92
F-0.005678963135039316
sI93
F0.002788020983130496
sI94
F0.012657912283292555
sI95
F0.009498963768011947
sI96
F-0.04348578500937463
sI97
F-0.006139290273213455
sI98
F0.023080602161441505
sI99
F-0.002423296193703828
sI100
F-0.0011288606516969475
sI101
F0.012596561808435576
sI102
F-0.00821981826477727
sI103
F0.02218261923332024
sI104
F-0.002953960517596794
sI105
F-0.0003452193490233767
sI106
F-0.0026767136349199255
sI107
F-0.011808684616347582
sI108
F0.0031432004505191485
sI109
F-8.547598766648566e-05
sI110
F0.0006076440466652278
sI111
F-0.015204286605423525
sI112
F-0.0010337725563179924
sI113
F-0.004422932120970154
sI114
F0.0028155419071658042
sI115
F0.0022328570496511165
sI116
F-0.008699619825317572
sI117
F0.01332335935055764
sI118
F-0.00044615743135097374
sI119
F8.985115983102053e-05
sI120
F-0.0076316189185272896
sI121
F0.016384127590608952
sI122
F0.010705076165131182
sI123
F-0.03490312996292999
sI124
F-0.002170422649596792
sI125
F-0.001746272936556643
sI126
F0.008696889569435573
sI127
F-0.021549312738942804
ssI20
g8
(tRp31
I64
F0.01943079202441607
sI65
F-0.0010530250016529208
sI66
F0.005690163900848663
sI67
F0.007444246763066759
sI68
F0.010857556970406808
sI69
F-0.0007913482387907785
sI70
F0.02524345636030224
sI71
F0.004499524295005678
sI72
F0.0005707312513978107
sI73
F0.0037980854694161237
sI74
F0.015889169370537113
sI75
F0.010737175499384657
sI76
F-0.0016206959586161508
sI77
F0.006175732416013449
sI78
F-0.0017153040407554428
sI79
F0.029180042161839635
sI80
F-0.010030008833306882
sI81
F0.002937661915392035
sI82
F0.01578366911219506
sI83
F0.017869656454347804
sI84
F-0.025650609902786396
sI85
F-0.016293058900969496
sI86
F-0.007437635667183924
sI87
F-0.014407713341960698
sI88
F-0.0007317134798934116
sI89
F-0.017124843034182755
sI90
F-0.0033641311614169295
sI91
F0.0024413656627902142
sI92
F0.002198021270958937
sI93
F-0.011249606513943236
sI94
F-0.008024504564539289
sI95
F0.004105722234392248
sI96
F-0.007528903266930759
sI97
F0.0006732279920669957
sI98
F-0.006068516925986861
sI99
F0.01083967233109684
sI100
F-0.01032034536901495
sI101
F-0.011286343870779815
sI102
F0.00880776968017238
sI103
F0.040073801095510675
sI104
F-0.06739397088109997
sI105
F-0.009455915782037054
sI106
F0.00967387547023314
sI107
F0.033666203692116876
sI108
F-0.01807922914862119
sI109
F-0.006821627297909244
sI110
F0.002782632186594942
sI111
F0.00011313175960855702
sI112
F0.003287218098872623
sI113
F-0.0040404499829630935
sI114
F-0.009325528764098468
sI115
F-0.002054535466452925
sI116
F0.006133443095728795
sI117
F0.0005493064865879629
sI118
F-0.008040847463242922
sI119
F-0.013168942447194501
sI120
F-0.00742193289727033
sI121
F0.0026033561846562315
sI122
F-0.014232789491230982
sI123
F-0.027912635111972655
sI124
F0.010673843728996777
sI125
F-0.007141451667046856
sI126
F-0.014742114598970986
sI127
F0.0053043016644628805
ssI21
g8
(tRp32
I64
F0.0030743921240965356
sI65
F-0.002070772516036487
sI66
F0.006636525502068749
sI67
F-0.010482928064530174
sI68
F0.015966633214183464
sI69
F0.006239441320400532
sI70
F0.019974958793012153
sI71
F-0.016979518070295088
sI72
F-0.003038784813260779
sI73
F-0.00909194488803558
sI74
F0.0010391333973501582
sI75
F-0.006919490786701471
sI76
F0.020763745056434947
sI77
F-0.009549359285457552
sI78
F-0.0037414704233965216
sI79
F0.02951152093673789
sI80
F-0.0042597771514461995
sI81
F-0.002601052472301877
sI82
F-0.01913741665032689
sI83
F0.015418341325110815
sI84
F-0.008556148939052191
sI85
F-0.023912081952021345
sI86
F-0.008422660108533419
sI87
F0.01345504776521635
sI88
F0.0022483059667381036
sI89
F-0.016391056966830148
sI90
F-0.013112274655884026
sI91
F-0.016272145260205376
sI92
F-0.007650994994159029
sI93
F-0.015309879331180483
sI94
F-0.03287338497994853
sI95
F-0.018664212774423677
sI96
F-0.005625653638882205
sI97
F0.016732516064345806
sI98
F0.009416711326491413
sI99
F-0.01818754029942732
sI100
F0.012534102117946519
sI101
F-0.015379203185189276
sI102
F0.003524152504239881
sI103
F0.04280019520410703
sI104
F-0.022754817374990608
sI105
F-0.0035500330048209142
sI106
F-0.002683358366760954
sI107
F-0.010765615396714202
sI108
F0.02378124221707712
sI109
F-0.009991513024717505
sI110
F-0.0005218809014848415
sI111
F0.001938360384240768
sI112
F-0.023052422652322796
sI113
F-0.005844194382514865
sI114
F0.016029932750715063
sI115
F0.0036350435550970505
sI116
F0.01690440237821207
sI117
F0.0029799707139327534
sI118
F0.009440909483010237
sI119
F-0.013658013199110496
sI120
F0.0013913632361540172
sI121
F-0.005340990340017079
sI122
F0.008249061934100974
sI123
F-0.023271291253533197
sI124
F0.014074113580853944
sI125
F-0.0016653623008460114
sI126
F-0.003259274858950579
sI127
F-0.02304170394938248
ssI22
g8
(tRp33
I64
F0.01774547268815399
sI65
F-0.0034110526126568475
sI66
F0.001229350881899566
sI67
F0.008562287918685536
sI68
F0.0026541105541353378
sI69
F-0.010162626983158833
sI70
F0.03750694546291383
sI71
F-0.0032283415730668587
sI72
F0.006834027337766707
sI73
F0.0006775336831387535
sI74
F0.002879186445511275
sI75
F-0.016728201180990804
sI76
F0.00032295560410790117
sI77
F-0.018301745035695358
sI78
F-0.0026507510570816417
sI79
F0.01387214817282905
sI80
F0.014855170906840909
sI81
F-0.0021836161480277357
sI82
F-0.021662779713776597
sI83
F0.01332761430399452
sI84
F-0.020011410800858335
sI85
F-0.017886841900246968
sI86
F-0.010107831100708713
sI87
F-0.005780303826766604
sI88
F0.004998150504256062
sI89
F-0.00543837258401859
sI90
F0.004699978851241789
sI91
F-0.02204442304582861
sI92
F-0.02086225084813095
sI93
F-0.007727616485504187
sI94
F-0.020599344139636
sI95
F-0.009001461750854613
sI96
F0.01639975134922961
sI97
F-0.003873965946930598
sI98
F-0.031546339975008796
sI99
F-0.025156457828139002
sI100
F-0.008728990571844786
sI101
F-0.004548551324586077
sI102
F-0.011643736570200914
sI103
F0.044795014981884984
sI104
F0.0070752736976237235
sI105
F-0.022428863032202782
sI106
F-0.018591963034492676
sI107
F-0.011706344596334656
sI108
F0.022346058000145996
sI109
F-0.0019146732343895542
sI110
F0.016576908772771883
sI111
F0.006946963187229039
sI112
F-0.00889456959653885
sI113
F-0.010938525335258532
sI114
F-0.002016989720468223
sI115
F-0.012317788266176648
sI116
F-0.010658953399023162
sI117
F-0.0027026983484828284
sI118
F0.023614285211504077
sI119
F0.0010957157247107063
sI120
F0.004115079751759848
sI121
F-0.0006294376642919159
sI122
F0.00816667529812156
sI123
F-0.030438473311123447
sI124
F0.01938702990241891
sI125
F0.005139721090235292
sI126
F0.0065787126410407435
sI127
F-0.023941420991468502
ssI23
g8
(tRp34
I64
F-0.015049598191544845
sI65
F0.008024829313170893
sI66
F-0.0014447493391234207
sI67
F0.0011507329723693047
sI68
F-0.006837859741244292
sI69
F-0.019525881854667478
sI70
F0.0201861825983297
sI71
F-0.01442323361027335
sI72
F-0.0005010740667326197
sI73
F0.008149238613349406
sI74
F0.0010761885035194597
sI75
F-0.018877278033367785
sI76
F-0.003865232953559019
sI77
F-0.004848261643060055
sI78
F-0.014155746418353965
sI79
F0.03385576205523855
sI80
F-0.028265968147177856
sI81
F-0.003682811994640604
sI82
F0.030122576488722155
sI83
F-0.04789120568756549
sI84
F-0.016905472822561562
sI85
F-0.02269472977676574
sI86
F-0.009221984067941004
sI87
F-0.01844810578466118
sI88
F0.00800390641445979
sI89
F0.030106847022161053
sI90
F-0.005521621635997029
sI91
F-0.02362867151390192
sI92
F-0.03456263297207966
sI93
F-0.010138318281276959
sI94
F0.03899261249488496
sI95
F-0.0026322121002401574
sI96
F0.0020285107281007896
sI97
F-0.016327708446309704
sI98
F0.016824695560314917
sI99
F-0.016586375747051383
sI100
F0.01444066058994871
sI101
F-0.02025992371120667
sI102
F0.003389201813225167
sI103
F0.06998347684454294
sI104
F0.009259835986432294
sI105
F-0.00010660173659364245
sI106
F-0.004147405431880819
sI107
F-0.04213480262221725
sI108
F-0.005126368638857123
sI109
F-0.014874389332560635
sI110
F0.006119367071687064
sI111
F0.010456517525615862
sI112
F0.004059579760771137
sI113
F-0.01713395599328704
sI114
F-0.00018344622471625825
sI115
F-0.013348922774439711
sI116
F0.0014621404892999471
sI117
F0.006154875158099941
sI118
F-0.024789770113111585
sI119
F-0.0036242548400560845
sI120
F-0.014384459243967678
sI121
F0.0018349066514324061
sI122
F0.0010243253318332384
sI123
F-0.040416010183717946
sI124
F-0.004997154914609438
sI125
F-0.0011075498319039504
sI126
F-0.030511841320499965
sI127
F-0.007625356402865273
ssI24
g8
(tRp35
I64
F-0.007353004547296472
sI65
F-0.02288903658088224
sI66
F0.054285824596873256
sI67
F0.0142081664927964
sI68
F0.00048459766727676213
sI69
F0.0015779907939233897
sI70
F-0.032720804220646355
sI71
F-0.0016345992321340568
sI72
F0.0022784770693121937
sI73
F0.025469324650262058
sI74
F-0.008249175484941028
sI75
F0.00201898439429671
sI76
F-0.015168639325264114
sI77
F-0.009119679719849956
sI78
F-0.0012688902877451469
sI79
F-0.007761095347091294
sI80
F-0.014467785446167813
sI81
F-0.019763151698270105
sI82
F-0.017054434149579814
sI83
F0.05155270934996178
sI84
F-0.006925017905232921
sI85
F-0.007308051047568784
sI86
F-0.0037751434453111334
sI87
F-0.007907363993423951
sI88
F-0.00792809448969997
sI89
F0.01189007397215577
sI90
F-0.0008195017957401229
sI91
F0.008605900394301749
sI92
F-0.020328452821453628
sI93
F-0.0020389775182803388
sI94
F-0.01382153350041584
sI95
F0.00548501764386695
sI96
F-0.020798535218661592
sI97
F-0.012179561712667793
sI98
F-0.0035942709800634368
sI99
F-0.010620171572350503
sI100
F-0.013299500703121993
sI101
F-0.04947044750654512
sI102
F0.0011174114433918697
sI103
F0.0373500807414841
sI104
F-0.0024862657897834236
sI105
F-0.004099424621928398
sI106
F0.022662822749298282
sI107
F0.009661632010005682
sI108
F7.59768330610344e-05
sI109
F0.013042834002639184
sI110
F-0.003730581004009928
sI111
F0.005384186684042793
sI112
F0.009078663518950626
sI113
F0.006524508303486065
sI114
F0.0015121034830167302
sI115
F-0.002795184647318031
sI116
F-0.026589153316023323
sI117
F-0.0016667594636544675
sI118
F-0.04101911445811731
sI119
F0.015689407253757417
sI120
F-0.02137537123659526
sI121
F0.047011932199934235
sI122
F0.0011187820712649317
sI123
F-0.029996172265375272
sI124
F0.02434181101701482
sI125
F0.017535228535723077
sI126
F0.022721691753329044
sI127
F0.02498768801941802
ssI25
g8
(tRp36
I64
F0.015113594896666874
sI65
F-0.005300635496608025
sI66
F-0.005954449352251506
sI67
F-0.003597627749501979
sI68
F-0.014079742597908345
sI69
F0.008366947714779333
sI70
F-0.025749174757372095
sI71
F-0.017632820288559996
sI72
F-0.006077990120468608
sI73
F0.020525743645747302
sI74
F0.00920888105887821
sI75
F0.018399775893737688
sI76
F-0.008873971649071324
sI77
F0.0002449108458977225
sI78
F-0.011429086354393379
sI79
F-0.014076315775671581
sI80
F0.0024136292785293745
sI81
F0.007682140753453095
sI82
F-0.008225163814377177
sI83
F-0.02037397762431318
sI84
F-0.005047144243009773
sI85
F0.004368614332622433
sI86
F-0.021469962469114413
sI87
F0.0014537515715501886
sI88
F0.0037412340000795175
sI89
F0.009461407240840117
sI90
F0.017214824785655572
sI91
F-0.017756623425576913
sI92
F-0.007205178515535182
sI93
F-0.00609339501186741
sI94
F0.004319143745329588
sI95
F0.005026507831317266
sI96
F-0.004597565510671476
sI97
F-0.0009739878029277958
sI98
F-0.009507864570512828
sI99
F0.002223823444841067
sI100
F-0.018769996689766574
sI101
F-0.03673849331105779
sI102
F0.004340804054964589
sI103
F0.014485490129108712
sI104
F0.01013980676863919
sI105
F-0.004716768104126664
sI106
F0.009037901568082865
sI107
F0.03737454783718757
sI108
F-0.0019627597418520088
sI109
F-0.001147778192705022
sI110
F-0.015051253783103513
sI111
F-0.0067296325530654556
sI112
F-0.001412892357450357
sI113
F0.007394322358473645
sI114
F0.006219216016839774
sI115
F-0.007096297801250913
sI116
F-0.008224791088819836
sI117
F0.006323438602640421
sI118
F0.01666589476914297
sI119
F0.012882811207070138
sI120
F-0.025271675389312777
sI121
F0.019052605888734357
sI122
F-0.017905726778095484
sI123
F-0.010149903410812967
sI124
F0.01618728465870649
sI125
F-0.015450336526991034
sI126
F-0.005527675922252309
sI127
F0.014176879692029347
ssI26
g8
(tRp37
I64
F-0.003308227477354208
sI65
F0.004870606299006929
sI66
F-0.023007568510134663
sI67
F0.014509757805088676
sI68
F0.011058647930200926
sI69
F-0.006612992081916676
sI70
F-0.02355559492332103
sI71
F-0.004753503830332842
sI72
F0.0013762281847166332
sI73
F-0.022838504764805676
sI74
F0.027805794265454938
sI75
F0.011793455938959304
sI76
F0.007777320813162446
sI77
F-0.001094433269579012
sI78
F0.016269567573170354
sI79
F-0.020344828558177878
sI80
F-0.0276068961631295
sI81
F-0.005293348560263758
sI82
F-0.004078712784837423
sI83
F-0.026662160508472546
sI84
F0.005673637017759842
sI85
F0.007253214428757432
sI86
F0.008610055165811056
sI87
F0.010700443604381668
sI88
F-0.00029596404246432515
sI89
F-0.001839755013579165
sI90
F-0.0030421476865556594
sI91
F-0.0014135126134948123
sI92
F-0.0022400363469979793
sI93
F-0.013479590647120227
sI94
F-0.004892460516317318
sI95
F-0.011056358704718912
sI96
F-0.013160517961109265
sI97
F-0.003616404267493076
sI98
F0.0016278662356023106
sI99
F0.004953858143659564
sI100
F-0.0026633247577237313
sI101
F-0.03448367123019706
sI102
F0.014616288609448837
sI103
F0.010109405788029036
sI104
F0.03094588636235475
sI105
F0.0026900291079478993
sI106
F-0.019876060919040015
sI107
F-0.012544893929773737
sI108
F0.004112352473672042
sI109
F-0.008243029043438327
sI110
F0.011340089049489053
sI111
F-0.005965446494893265
sI112
F-0.012230171360747588
sI113
F0.009140467916128535
sI114
F0.006879182816162676
sI115
F-0.0005518908361577838
sI116
F-0.00997419274319194
sI117
F0.001316028298857304
sI118
F0.01734775822890484
sI119
F3.167053568770376e-05
sI120
F-0.00131933964531844
sI121
F0.020178593078684266
sI122
F-0.015595905838079226
sI123
F-0.024754359606907302
sI124
F0.0075551589212506775
sI125
F-0.008503467589719541
sI126
F-0.005830601070243727
sI127
F0.009300543022517357
ssI27
g8
(tRp38
I64
F0.021772837928765953
sI65
F-0.0033045768357084864
sI66
F-0.031333417279184594
sI67
F0.01416390369530743
sI68
F-0.003777278402270222
sI69
F-0.008293584333750284
sI70
F-0.02613453973864985
sI71
F-0.01571463722871592
sI72
F-0.009673273947281324
sI73
F-0.008684244730685544
sI74
F0.019224814440200803
sI75
F0.026571100080864603
sI76
F0.009070359431197527
sI77
F-0.009597468138356715
sI78
F0.0035970974555626094
sI79
F-0.005805602382749899
sI80
F-0.004641553310169856
sI81
F0.00046462448863321735
sI82
F0.007283572052129758
sI83
F-0.010148713000549519
sI84
F-0.0012286655895333428
sI85
F-0.006286506324813492
sI86
F0.015033692508166264
sI87
F-0.007566156328149498
sI88
F-0.010913389349191211
sI89
F-0.0026500259408957744
sI90
F0.00512974505332279
sI91
F-0.0023746626191631995
sI92
F-0.0007135371647600424
sI93
F-0.003576271137256543
sI94
F0.013385860918778525
sI95
F-0.01956844050536901
sI96
F-0.006249920248726294
sI97
F0.016247328961773944
sI98
F0.020760045847902923
sI99
F-0.007364965275363529
sI100
F0.017009224241686854
sI101
F-0.01872214317398321
sI102
F-0.02327123235178208
sI103
F0.015241818831528305
sI104
F0.01034597093531402
sI105
F0.003243991331330802
sI106
F-0.004597322994282942
sI107
F-0.01342558917357593
sI108
F-0.029599254296800128
sI109
F-0.0024240309298479827
sI110
F-0.014575512700154907
sI111
F0.012806746160819801
sI112
F0.007797892072460124
sI113
F-0.0035598394253209373
sI114
F-0.001293027048512386
sI115
F0.002222921506966986
sI116
F-0.020010742060543867
sI117
F0.005871197751772474
sI118
F-0.007054655670713579
sI119
F-0.019583208492189093
sI120
F-0.02266782582028577
sI121
F0.011366389048591923
sI122
F-0.01462361769343192
sI123
F-0.021362783461623843
sI124
F-0.009494116972982861
sI125
F0.0014884858866618797
sI126
F0.004731798132573169
sI127
F0.0200111083342268
ssI28
g8
(tRp39
I64
F-0.014180796442722294
sI65
F-0.016285144399350724
sI66
F-0.020380883922823948
sI67
F-0.0008404326842493543
sI68
F0.0009226527174988021
sI69
F-0.005977317911346952
sI70
F-0.012779279588244376
sI71
F-0.014484871642314172
sI72
F0.0009359008996811696
sI73
F-0.015719450516087387
sI74
F0.017216107771523756
sI75
F0.011814502117017197
sI76
F-0.006839046661313703
sI77
F0.0001476973355210189
sI78
F-0.001082768090769952
sI79
F-0.0043906551925578016
sI80
F-0.012441658955348545
sI81
F-0.009990851531848503
sI82
F0.02988404058235765
sI83
F0.01690696083790296
sI84
F-0.024660913569358334
sI85
F0.013041871727079343
sI86
F0.0030281821444850016
sI87
F0.005426002978115272
sI88
F-0.000938919709869194
sI89
F0.01807238420739415
sI90
F-0.02432519465274471
sI91
F-0.01971779959302283
sI92
F-0.009333042506279476
sI93
F-0.004162015734382236
sI94
F-0.00477137486388396
sI95
F0.022673390470605025
sI96
F0.016778299815568297
sI97
F0.004720185455889333
sI98
F0.0029355312144664974
sI99
F-0.013816988477576068
sI100
F0.012081777709771976
sI101
F-0.0022782343532959035
sI102
F0.016417144848317026
sI103
F0.006989530760563017
sI104
F-0.04799467586151975
sI105
F0.0024978416437907817
sI106
F0.014124892031839103
sI107
F0.0019149148625615545
sI108
F-0.025168467826496982
sI109
F0.029521720313447228
sI110
F0.012984842876521387
sI111
F0.0034234978760051735
sI112
F-0.005044048586995226
sI113
F-0.002493754876032599
sI114
F0.029731375990935473
sI115
F0.015764147906887193
sI116
F-0.017110294031876836
sI117
F-0.00015765533147523851
sI118
F-0.01629599840681361
sI119
F-0.011769024004388541
sI120
F0.008981583941240828
sI121
F0.007945076567165832
sI122
F-0.0033802533724507033
sI123
F-0.018786399747513786
sI124
F0.002798039547606637
sI125
F0.00898042976601261
sI126
F0.007896007012974573
sI127
F-0.024215549522256328
ssI29
g8
(tRp40
I64
F-0.004510111392738691
sI65
F-0.010741988455664691
sI66
F-0.0054278248334212005
sI67
F0.0048416074932599645
sI68
F-0.008209405846754201
sI69
F0.0030499406229267455
sI70
F0.0008131909926128864
sI71
F0.008040524571553527
sI72
F-0.0008135229185800769
sI73
F-0.017994613772240695
sI74
F-0.014575027027123235
sI75
F-0.007738586968774068
sI76
F0.001267999311920362
sI77
F0.009760699558242306
sI78
F0.01072388847803433
sI79
F-0.008773927022333409
sI80
F-0.0025991561833040096
sI81
F0.00978112920369478
sI82
F-0.02128012317887605
sI83
F0.018208537585591576
sI84
F-0.01838740596556859
sI85
F0.016883015186053334
sI86
F0.010931468239514732
sI87
F0.0102106531064932
sI88
F-0.0038618275763627214
sI89
F-0.01068186449976931
sI90
F-0.005380599207536288
sI91
F-0.01010322426457521
sI92
F-0.004841756090549141
sI93
F-0.02177883517829291
sI94
F0.0017333716125116313
sI95
F-0.003506183524362246
sI96
F0.019930106958427667
sI97
F0.025964747407797504
sI98
F-0.023006866531606916
sI99
F-0.022517701716691787
sI100
F0.012571853778245639
sI101
F-0.030383388095781512
sI102
F-0.02501415615119965
sI103
F0.009478917509898072
sI104
F-0.0038122937980317284
sI105
F-0.007838984158928133
sI106
F0.0075692033089851014
sI107
F0.009487198040763757
sI108
F0.017881826608216776
sI109
F-0.0070997449020700504
sI110
F0.00568472355519204
sI111
F-0.006157512684487537
sI112
F-0.013516879332406874
sI113
F0.01577119148137578
sI114
F0.0019187153820297196
sI115
F0.0006858277439263843
sI116
F0.0044612544825443495
sI117
F0.006651456529631773
sI118
F0.0034635539622615446
sI119
F-0.004742429151946954
sI120
F0.012638012842360843
sI121
F0.028217929150154992
sI122
F-0.0016492021087184086
sI123
F-0.016937720724000405
sI124
F-0.0019395510681766682
sI125
F0.0021187436552964796
sI126
F-0.004429190561280639
sI127
F0.005615604124026399
ssI30
g8
(tRp41
I64
F-0.018781668688279615
sI65
F-0.017510153017684684
sI66
F0.0015560976820123637
sI67
F-0.025509250807201546
sI68
F-0.023321826996129762
sI69
F0.010885082721761821
sI70
F-0.026125450245705242
sI71
F-0.001800760580807314
sI72
F-0.02330874565915483
sI73
F0.0012592100555913351
sI74
F0.01542515458192309
sI75
F-0.015481601345529696
sI76
F0.0025818012568482843
sI77
F-0.00039642787699701047
sI78
F0.01457285643925243
sI79
F-0.010383808423744072
sI80
F-0.0005460473330947842
sI81
F-0.004119046955020448
sI82
F-0.02406923214588688
sI83
F0.0233044863055595
sI84
F-0.010272788036892196
sI85
F0.009735008047632438
sI86
F-0.006588186276507036
sI87
F0.004441952110799198
sI88
F-0.02449495099028098
sI89
F-0.002091625543631226
sI90
F0.0007089833290128877
sI91
F-0.023175843200494758
sI92
F-0.01051315621032365
sI93
F0.0014353627109448758
sI94
F-0.02445600336373678
sI95
F-0.013185453310700996
sI96
F0.019700425818041996
sI97
F-0.004805687605416204
sI98
F-0.016284784132696902
sI99
F0.012915204390371087
sI100
F-0.01679702337136436
sI101
F-0.035979550005679636
sI102
F0.008321476477366946
sI103
F0.006744172715403115
sI104
F0.007959590170974366
sI105
F-0.003560808936322342
sI106
F-0.0013417118652636778
sI107
F-0.028901379075721306
sI108
F0.024698725692564302
sI109
F-0.0006202239532235316
sI110
F-0.005183523910191675
sI111
F0.0001714858051566434
sI112
F-0.00660406603817788
sI113
F0.00873146152790354
sI114
F-0.007793156964861865
sI115
F-0.005243798988882053
sI116
F0.017080608608475902
sI117
F-0.015255379780653814
sI118
F0.01882352836077162
sI119
F-0.011996310184402352
sI120
F0.002038231802776477
sI121
F0.018538253304827286
sI122
F-0.011764471908869917
sI123
F0.0015272406456610572
sI124
F-0.012347005226774998
sI125
F-0.023047883626385168
sI126
F0.0033240349097662025
sI127
F0.004359755855480362
ssI31
g8
(tRp42
I64
F-0.02055652439709055
sI65
F0.011490312968711464
sI66
F0.012178739391532117
sI67
F-0.0009668440892976261
sI68
F-0.02367012247774414
sI69
F-0.009653427284113857
sI70
F-0.03485354258530519
sI71
F0.0019932794232686507
sI72
F-0.02224684451630697
sI73
F0.024242333490622794
sI74
F-0.011785731421909218
sI75
F-0.026580154021612973
sI76
F-0.02811894306444135
sI77
F-0.012948013223092743
sI78
F-0.009876009314602422
sI79
F-0.020357723592112395
sI80
F0.0012168043848809693
sI81
F-0.010760581385968524
sI82
F0.009078186857716782
sI83
F-0.045196292071228335
sI84
F-0.025139513776296748
sI85
F0.006890207289123566
sI86
F0.0033742764220554564
sI87
F-0.0027998694485477935
sI88
F-0.010362541680373916
sI89
F0.02612128506301458
sI90
F-0.01717035608828456
sI91
F-0.025465545542092283
sI92
F-7.408277239568136e-05
sI93
F-0.009780521911492295
sI94
F0.039633842835363794
sI95
F-0.0036504341005250697
sI96
F0.008713302361805203
sI97
F0.0016275539029802011
sI98
F-0.00838517374562049
sI99
F0.008107812226899805
sI100
F0.006424755716246513
sI101
F-0.0677120331562103
sI102
F0.00047407311441210255
sI103
F0.02478386961092076
sI104
F0.005375239752384352
sI105
F0.00047427611714108837
sI106
F-0.022742754257460425
sI107
F-0.010172537595671195
sI108
F0.002623222949786487
sI109
F-0.009249705208474231
sI110
F-0.021726295114696488
sI111
F0.011875305399027498
sI112
F0.015077205627128772
sI113
F0.007213104234149136
sI114
F0.014392023928791887
sI115
F0.00019727721861903402
sI116
F0.022124758282274174
sI117
F-0.004811255214519642
sI118
F-0.008224210809346074
sI119
F-0.01676268339169174
sI120
F-0.00018001754445995058
sI121
F0.020839750507302978
sI122
F-0.004483119537574881
sI123
F-0.018912852999284465
sI124
F-0.011740987253916941
sI125
F-0.015115478073246504
sI126
F-0.011721640451137523
sI127
F0.007807072211557292
ssI32
g8
(tRp43
I64
F0.012593633432838267
sI65
F0.0016083980168397026
sI66
F0.050819746834727626
sI67
F-0.01113109051989571
sI68
F-0.002384942865758609
sI69
F-0.0017946468713722753
sI70
F-0.07401410290187381
sI71
F-0.007188996073042497
sI72
F0.0013886846788981
sI73
F0.015173560638341521
sI74
F-0.01603231285487521
sI75
F0.0020033124150634833
sI76
F0.013039482280334767
sI77
F-0.013934625528722723
sI78
F0.0053361637056430706
sI79
F-0.009103567777318989
sI80
F0.0048664832705472005
sI81
F-0.027955109194034714
sI82
F-0.022138032281034406
sI83
F0.016011961116485708
sI84
F0.0270936187800256
sI85
F-0.0029733064510011993
sI86
F0.007411448833306074
sI87
F-0.011955977942442372
sI88
F0.007304393817393834
sI89
F-0.004634343594621126
sI90
F0.04678669741777435
sI91
F0.013705996130653951
sI92
F0.0003032475748809902
sI93
F0.017008437678117494
sI94
F-0.008294740232411543
sI95
F4.348709122272764e-05
sI96
F-0.01622579373745958
sI97
F-0.0023808826434400217
sI98
F0.0012587543020489255
sI99
F-0.006201623915929461
sI100
F-0.01618181466694584
sI101
F-0.03794846659166769
sI102
F-0.00749901000540671
sI103
F-0.020121672449232263
sI104
F-0.003916074830767225
sI105
F-0.011167349727297101
sI106
F0.02321298406569756
sI107
F0.019039119969463236
sI108
F-0.001713942183922039
sI109
F0.00863224865331419
sI110
F0.013099738459311134
sI111
F-0.009850489487883305
sI112
F-0.005134673433625201
sI113
F-0.00090304777135279
sI114
F-0.02124650380676441
sI115
F-0.03456945750102559
sI116
F-0.022620657518405224
sI117
F0.009726253127696828
sI118
F-0.026278713412548445
sI119
F-0.009761462714604862
sI120
F-0.0028154925364588705
sI121
F0.0032539453451574437
sI122
F0.009916607475734078
sI123
F-0.014174120226366514
sI124
F0.018552798274697115
sI125
F0.0019591334582010262
sI126
F0.02463499463234035
sI127
F0.011818007364340877
ssI33
g8
(tRp44
I64
F0.009050368921313915
sI65
F0.006510006762871659
sI66
F-0.005899870975847808
sI67
F0.0038726831464329964
sI68
F-0.013153647263743464
sI69
F-0.002668754523409686
sI70
F-0.03842681637205508
sI71
F-0.008187166327552222
sI72
F0.01022669572423166
sI73
F-0.020233151134709616
sI74
F0.005767997641909374
sI75
F0.007145793409971396
sI76
F-0.0035499723892968593
sI77
F-0.010330263394432
sI78
F-0.0026440520363515685
sI79
F0.005272244302615895
sI80
F-0.002479803146309475
sI81
F0.019795156456839325
sI82
F-0.00038615468064308046
sI83
F-0.010372956306514575
sI84
F0.017559727158131762
sI85
F0.006918715345035568
sI86
F-0.01343811978565061
sI87
F0.01608134868732948
sI88
F-0.015759910602389085
sI89
F-0.006287170130003261
sI90
F0.0069873987272452516
sI91
F0.010385681594175359
sI92
F-0.011872106580831581
sI93
F0.01579007119470032
sI94
F0.025096236064440856
sI95
F0.008970240174104659
sI96
F0.003093601248919281
sI97
F0.0026405257337149806
sI98
F0.002812757555032798
sI99
F0.0016599736918417628
sI100
F0.00040497024046598826
sI101
F-0.009843056803376085
sI102
F-0.001360407750251768
sI103
F-0.03038085345086478
sI104
F0.011451793246503026
sI105
F-0.004713730633765477
sI106
F0.0005410798766674047
sI107
F0.03787800125543331
sI108
F0.009459599989766867
sI109
F-0.011520542674749662
sI110
F0.014554522242215307
sI111
F0.009080643373346646
sI112
F0.008997993269054176
sI113
F0.008772501946240702
sI114
F0.0001251476074898217
sI115
F0.008781485064228572
sI116
F-0.014716466704270993
sI117
F0.0026640538720879596
sI118
F0.011467751978309574
sI119
F-0.005620157800745718
sI120
F0.007375394966601034
sI121
F0.021754977777986947
sI122
F0.006259458015774912
sI123
F-0.0022662381520055517
sI124
F0.022179304497740807
sI125
F0.006455301424051389
sI126
F-0.026989449868292048
sI127
F0.01544272195198271
ssI34
g8
(tRp45
I64
F0.00841966872791649
sI65
F0.0007239492650422239
sI66
F-0.03463659932991477
sI67
F0.009064705309868477
sI68
F-0.019435873045260215
sI69
F0.006286362838974695
sI70
F-0.024271093848488853
sI71
F-0.017430789437641488
sI72
F-0.002844188703595192
sI73
F-0.008757325919396384
sI74
F0.0004892590747652285
sI75
F0.016699487765429004
sI76
F-0.01424921324874671
sI77
F0.020133356581023866
sI78
F0.0030195130985593774
sI79
F-0.004634709991017334
sI80
F-0.02098284863348893
sI81
F0.011554488785755141
sI82
F-0.011005202166737532
sI83
F-0.027469251457146477
sI84
F0.021702374460927043
sI85
F0.012447866683704721
sI86
F0.003943189226778021
sI87
F-0.009164499427865073
sI88
F0.014965477582211086
sI89
F0.004588439847562447
sI90
F0.024455906287197998
sI91
F-0.009910617333416997
sI92
F-0.0010930618849637676
sI93
F-0.0014716255631932046
sI94
F0.002944378777139308
sI95
F-0.02067856074001418
sI96
F-0.020620797152582845
sI97
F-0.012638718694311275
sI98
F-0.010383707539921721
sI99
F-0.007796889082447512
sI100
F-0.013968784030480266
sI101
F-0.016161453061095878
sI102
F0.012957305832042925
sI103
F-0.032253570320119704
sI104
F0.050325772904912316
sI105
F-0.010162096483259912
sI106
F-0.01681015700459343
sI107
F-0.0020910509943575625
sI108
F0.014430931216372041
sI109
F0.012867842071383492
sI110
F3.993938814670138e-05
sI111
F0.008026705643170332
sI112
F-0.0052783322975958795
sI113
F-0.02065675877975306
sI114
F0.01363186636458444
sI115
F0.013774621536870443
sI116
F-0.00048465896640746974
sI117
F-0.0055460540416213625
sI118
F0.02176443439774007
sI119
F-0.007982867482419245
sI120
F0.001108498763555864
sI121
F-0.003144586522189449
sI122
F-0.010929705139739924
sI123
F0.003575973306431171
sI124
F-0.005323736501169095
sI125
F0.005421188539485815
sI126
F-0.02134993747818334
sI127
F0.011552857904849978
ssI35
g8
(tRp46
I64
F-0.0025726548043118833
sI65
F0.003718391682890324
sI66
F-0.02095503046086883
sI67
F-0.015083328027571119
sI68
F0.012567605032481464
sI69
F0.011229226175437668
sI70
F-0.01742596373203077
sI71
F-0.0016659129043608912
sI72
F-0.00480007951644319
sI73
F-0.007822006544236381
sI74
F0.029732816741839974
sI75
F0.004352050207215864
sI76
F0.019042954123226256
sI77
F0.0011875274835894145
sI78
F-0.010885617753479064
sI79
F-0.03217653032259148
sI80
F-0.019222288029472866
sI81
F0.005883366146045775
sI82
F0.0049066053078950225
sI83
F0.00822744692533253
sI84
F-0.0016909353326833951
sI85
F0.01051866804446983
sI86
F-0.008071669088069102
sI87
F0.013373843742185112
sI88
F-0.0009286324118604737
sI89
F-0.0160745853066652
sI90
F0.032752284944972086
sI91
F-0.0032370061437730574
sI92
F0.016204873742373595
sI93
F0.01520332926664278
sI94
F0.00673915266015054
sI95
F-0.015118770317666211
sI96
F-0.014547194013860239
sI97
F0.013081134157978324
sI98
F-0.0007695095282483419
sI99
F0.014919324471955502
sI100
F0.003224649974401792
sI101
F-0.013146958856546315
sI102
F0.02360001782995921
sI103
F-0.019795605432396956
sI104
F-0.009017376461215951
sI105
F-0.011332495587593631
sI106
F-0.0012863460293020572
sI107
F0.004715494540715649
sI108
F-0.03618376938491384
sI109
F0.004284155624755742
sI110
F-0.011515144277470316
sI111
F0.003470632622484039
sI112
F0.008503406271168126
sI113
F-0.009197603458869403
sI114
F-0.011038979851654446
sI115
F0.005875947118276968
sI116
F-0.012794166475435572
sI117
F0.007311999839972093
sI118
F0.007611510274856031
sI119
F-0.021831508778241443
sI120
F0.01071443173950885
sI121
F-0.01185578071390176
sI122
F-0.003312176682475364
sI123
F0.011539915135824315
sI124
F-0.004221346707094031
sI125
F-0.0004430516756827262
sI126
F0.02218836468656889
sI127
F0.010213455152753589
ssI36
g8
(tRp47
I64
F0.029037453351859796
sI65
F-0.009404641105846111
sI66
F0.0005845263610442777
sI67
F0.01700752303984516
sI68
F0.0183971811645264
sI69
F-0.007286012915424264
sI70
F-0.04477505280462869
sI71
F0.008759038972181808
sI72
F-0.00940618563167201
sI73
F0.013441576037134985
sI74
F0.013308283940300076
sI75
F0.027880993633409314
sI76
F-0.003786867459760965
sI77
F-0.011927325369944496
sI78
F-0.0038326888224317363
sI79
F-0.02196145061130571
sI80
F-0.006461993893233369
sI81
F-0.0025066975162568567
sI82
F0.0013961841707297667
sI83
F0.004977803614734914
sI84
F-0.019504392099200178
sI85
F-0.007680285989042774
sI86
F0.028611491526933475
sI87
F0.024167294502088474
sI88
F0.0034341830955929584
sI89
F0.004595334181575887
sI90
F0.020358916855621106
sI91
F-0.02083946272365264
sI92
F0.01817025275406821
sI93
F0.017410691197038624
sI94
F-0.011680344231577364
sI95
F-0.005807983122014587
sI96
F0.0006893262935107615
sI97
F0.022443563759211218
sI98
F0.006956416373347029
sI99
F-0.0037352290672226767
sI100
F0.010658171101173744
sI101
F-0.008603207739070806
sI102
F0.013435685191788328
sI103
F-0.009504307340680354
sI104
F-0.0318216467409611
sI105
F-0.0018134231126100454
sI106
F0.018523495494613833
sI107
F-0.020728427057548935
sI108
F-0.030419388369473534
sI109
F0.007994259010458462
sI110
F-0.005220262937411057
sI111
F0.002392667517950741
sI112
F-0.006746914528052396
sI113
F-0.010999351175173278
sI114
F0.018109201261613347
sI115
F0.005088636003955544
sI116
F0.0066274034209585775
sI117
F-0.010290504141537165
sI118
F-0.005878511845474326
sI119
F0.006730659329397821
sI120
F-0.00056143022122661
sI121
F-0.007799628243365868
sI122
F-0.011296035278441377
sI123
F0.00038767269414593993
sI124
F-0.01017558997077245
sI125
F0.007469675817004931
sI126
F-0.00324729449357037
sI127
F0.03680355970529907
ssI37
g8
(tRp48
I64
F0.008832605764515705
sI65
F-0.0014639448984904962
sI66
F-0.0016962006892378562
sI67
F0.007491912960642898
sI68
F0.014208656221231485
sI69
F0.001904022011089346
sI70
F-0.03089761054722319
sI71
F0.010062841769417078
sI72
F-0.00910314603311522
sI73
F-0.01601614814480329
sI74
F-0.0004378194980807688
sI75
F-0.007263266080656677
sI76
F0.00024522832463227213
sI77
F-6.077977679872442e-05
sI78
F-0.0027032852700667573
sI79
F0.00992345975076199
sI80
F0.014972782131964752
sI81
F-0.0019098620423792457
sI82
F-0.002262647623957579
sI83
F0.01782609052935739
sI84
F-0.006429391138402524
sI85
F0.023148220966492872
sI86
F-0.007473946335044174
sI87
F0.0032319942548210117
sI88
F-6.210433371471212e-06
sI89
F7.156880249891074e-05
sI90
F0.010893260010456042
sI91
F0.022562884664047506
sI92
F-0.010030225517149296
sI93
F0.007940448288722394
sI94
F-0.02922080961580594
sI95
F-6.607059177896711e-05
sI96
F0.0022812676233815708
sI97
F0.006754185201671482
sI98
F-0.001918524052932859
sI99
F0.011569625025547946
sI100
F0.01666451581204606
sI101
F-0.012587509162910026
sI102
F0.0047240427914686045
sI103
F-0.01905813316598821
sI104
F-0.001252485438857871
sI105
F0.001660419496343785
sI106
F0.010244615971989907
sI107
F-0.006345683416518612
sI108
F0.011878368523333833
sI109
F0.0073299536486199105
sI110
F-0.008179706230345703
sI111
F0.014725446363221283
sI112
F-9.617661727436408e-05
sI113
F0.0038738172515276896
sI114
F0.01865968111906241
sI115
F-0.019630928581146637
sI116
F0.005297608071267474
sI117
F0.0087649922096916
sI118
F-0.0014771598003171006
sI119
F-0.008612864223625642
sI120
F0.004631313576159501
sI121
F-0.016702457380146363
sI122
F-0.0019636093055804965
sI123
F0.0049211160040701874
sI124
F0.004614742088483576
sI125
F0.003231213185988388
sI126
F-0.014710008841605266
sI127
F0.030858394014530086
ssI38
g8
(tRp49
I64
F-0.007918251044973281
sI65
F0.011877107736229893
sI66
F-0.021973928205632792
sI67
F0.0035960014181691782
sI68
F0.0004696545014312416
sI69
F-0.010221598411384758
sI70
F-0.0322810384212113
sI71
F-0.010637961186182012
sI72
F0.005665778130964882
sI73
F-0.010662927079192851
sI74
F-0.010690376196547684
sI75
F-0.005066615511821141
sI76
F-0.01329988787615118
sI77
F-0.02311639866774068
sI78
F-0.0011149035210217292
sI79
F0.015456643397904323
sI80
F-0.0020351036799225015
sI81
F-0.012030912718200764
sI82
F0.005156747194199067
sI83
F0.027753872923013536
sI84
F0.003973138668894419
sI85
F-0.006487084778232428
sI86
F-0.007394671086024816
sI87
F-0.013294317216952773
sI88
F0.004989758434064444
sI89
F0.0023395520856344743
sI90
F0.004245609123395756
sI91
F-0.016458870688491674
sI92
F-0.007409558356467291
sI93
F0.025998945568709398
sI94
F-0.01526481458493012
sI95
F0.00023253775863359727
sI96
F0.011089041864618239
sI97
F0.001612649625104895
sI98
F-0.0043372537499163834
sI99
F-0.005838546050083603
sI100
F-0.00900975415611625
sI101
F-0.019260260643905586
sI102
F-0.004702696342118637
sI103
F-0.013498483893945873
sI104
F0.008118180480582073
sI105
F-0.00014281648699690573
sI106
F0.010785255772184374
sI107
F-0.01726123605126479
sI108
F0.026461818886695267
sI109
F0.010267330306329774
sI110
F-0.005637303605711245
sI111
F-0.0044342984239417235
sI112
F-0.007862800687185414
sI113
F0.007144395233354716
sI114
F0.005872187458692418
sI115
F-0.01383845915515811
sI116
F-8.87114275549571e-07
sI117
F0.003219206030571517
sI118
F0.00861659444715901
sI119
F-0.02041050998101658
sI120
F-0.006665667454839553
sI121
F-0.00855981435302596
sI122
F0.0019246552301739547
sI123
F-0.00137446472040594
sI124
F-0.010261071673711776
sI125
F0.00325534618629419
sI126
F0.006006695537696537
sI127
F0.030546456486327186
ssI39
g8
(tRp50
I64
F-0.009353959438891151
sI65
F-0.007095623490522075
sI66
F0.01546300437784904
sI67
F-0.016625266661324557
sI68
F-0.007038940804080647
sI69
F-0.016867045200372795
sI70
F-0.04309869431658305
sI71
F0.007201991682387467
sI72
F-0.010851821630674009
sI73
F-0.015898000034089744
sI74
F-0.03546999820907731
sI75
F0.007928603419523802
sI76
F-0.02300012126270099
sI77
F0.0022161292116589597
sI78
F-0.010094934702269544
sI79
F-0.016863535691128435
sI80
F0.013658586771458647
sI81
F0.0003548371428223668
sI82
F0.021653607996156447
sI83
F-0.047901594583859154
sI84
F-0.009755125676360561
sI85
F-0.0027796416906535025
sI86
F0.005565203438191031
sI87
F0.004382462967275525
sI88
F0.006402018852599585
sI89
F0.035966737521619926
sI90
F-0.0006536254698693526
sI91
F0.000132109842117916
sI92
F-0.012794621675295895
sI93
F0.03519637652292377
sI94
F0.05850622909818441
sI95
F-0.004959938154749283
sI96
F0.010603990420814585
sI97
F0.0020479962332325325
sI98
F-0.002758515807146818
sI99
F0.029400443510513203
sI100
F0.012155848513079928
sI101
F-0.031153226391372156
sI102
F0.010065707043115487
sI103
F-0.012904783574807087
sI104
F-0.009447175545271044
sI105
F-0.0044258412716241605
sI106
F-0.021299599230153638
sI107
F-0.016101284837974135
sI108
F0.022748843053028947
sI109
F-0.006149380448104873
sI110
F-0.011686134059130207
sI111
F-0.02188196122834546
sI112
F-0.0016841721787998734
sI113
F-0.014744122923387865
sI114
F0.010675946289141584
sI115
F0.00703607221891194
sI116
F0.02122083754476134
sI117
F-0.00956814993215342
sI118
F-0.033592856912528654
sI119
F-0.017260841513977342
sI120
F0.011234569974206313
sI121
F0.009702630591416347
sI122
F-0.013950050328200805
sI123
F0.007319565220249219
sI124
F-0.0005979394265682675
sI125
F0.013086847729326797
sI126
F-0.01147447293637267
sI127
F0.024934643739295687
ssI40
g8
(tRp51
I64
F-0.004924308002169738
sI65
F-0.01197392809132258
sI66
F0.04782039077522189
sI67
F0.009996951871581316
sI68
F0.008972046215762398
sI69
F-0.003000468396472456
sI70
F-0.03431212586576236
sI71
F0.004886183131257294
sI72
F0.00432844254793803
sI73
F0.0071779567831274935
sI74
F-0.00419346941806058
sI75
F-0.014144039808640816
sI76
F-0.006423045819494306
sI77
F0.0007052237891562435
sI78
F-0.0036370036680820786
sI79
F-0.03647900299394715
sI80
F0.032384859617885356
sI81
F-0.008845874347798053
sI82
F-0.05046929943264376
sI83
F0.034626489478525965
sI84
F-0.0181192234879041
sI85
F-0.030112157043017077
sI86
F0.00278014414200863
sI87
F-0.004547202183873837
sI88
F-0.015127667814182823
sI89
F-0.013682144661973554
sI90
F0.02450618581811238
sI91
F0.020909062625604297
sI92
F-0.0147388253265405
sI93
F0.04510903912763126
sI94
F-0.005224570764433862
sI95
F-0.002267276570239132
sI96
F0.0095538143607111
sI97
F-0.0017449714954543664
sI98
F-0.010960647139754386
sI99
F0.012006313447849661
sI100
F-0.011557196819202767
sI101
F0.04359580822023693
sI102
F-0.019432125974856128
sI103
F-0.031994910368041696
sI104
F-0.019821346938234227
sI105
F0.013637798151508689
sI106
F-0.0018341816775841926
sI107
F5.2392492701850716e-06
sI108
F0.01037738694974644
sI109
F-0.009408651793874042
sI110
F0.022549269767847723
sI111
F-0.017104064342694035
sI112
F-0.012642983140239594
sI113
F0.009872931037745235
sI114
F-0.020804356198363544
sI115
F-0.008439273211334749
sI116
F-0.029824646155746003
sI117
F0.0023719140937965536
sI118
F-0.013533188256680314
sI119
F-0.012931682398403626
sI120
F-0.007272670997463341
sI121
F-0.02257837870074792
sI122
F-0.02451989170025287
sI123
F-0.006122217922578703
sI124
F0.023855812308695854
sI125
F-0.003604374611056517
sI126
F0.03077280351299026
sI127
F-0.004206707782350477
ssI41
g8
(tRp52
I64
F-0.007692540213926576
sI65
F-0.017469907998569838
sI66
F0.0055304766696224516
sI67
F-0.007760072584461819
sI68
F-0.0008804645994820676
sI69
F0.011506552670505125
sI70
F-0.02247145510683809
sI71
F-0.0051805021744873335
sI72
F0.00039163530238504565
sI73
F0.0035480961199996102
sI74
F0.0019726342618369124
sI75
F-0.0023729436199733792
sI76
F0.004261645804459937
sI77
F-0.008692789222432756
sI78
F-0.005447426000072289
sI79
F-0.011647477268210464
sI80
F-0.006613454037767593
sI81
F0.013370506501858153
sI82
F0.00192304700394805
sI83
F0.005467497646735288
sI84
F0.03608112681744811
sI85
F-0.03194900317350538
sI86
F0.006546077459712546
sI87
F-0.0036523538691030184
sI88
F0.006377104510199276
sI89
F0.0031998132384694657
sI90
F0.025105096218178823
sI91
F0.014051686147315568
sI92
F-0.011069063589045833
sI93
F0.02103182008855722
sI94
F-0.014606342741175678
sI95
F-0.005611416652765231
sI96
F0.013024601026941612
sI97
F0.018098419162687302
sI98
F0.0014829982044996775
sI99
F-0.010357217577148272
sI100
F-0.02444714110804033
sI101
F0.016007867842147246
sI102
F-0.014868577929510187
sI103
F0.0007385438729912999
sI104
F0.015552500608510038
sI105
F-0.000316708218714706
sI106
F0.002674127178948749
sI107
F-0.008182628965461722
sI108
F-0.006696097604653016
sI109
F-0.0008376725538370351
sI110
F-0.01829253363935957
sI111
F-0.00751238792148365
sI112
F0.010737657405083053
sI113
F-0.01440938142508217
sI114
F0.002904476363326828
sI115
F0.017997784618864303
sI116
F-0.012156269899527271
sI117
F-0.027421108477412564
sI118
F0.01197708469560266
sI119
F0.007552497209483067
sI120
F-0.006425170514107203
sI121
F-0.020629413652557906
sI122
F-0.004052834157633204
sI123
F-0.0019360092378291295
sI124
F-0.0009440289253441736
sI125
F0.010472365449009872
sI126
F-0.02500528228307672
sI127
F-0.0018571845762783805
ssI42
g8
(tRp53
I64
F-0.0007318801726593334
sI65
F0.0038814064521843447
sI66
F-0.03071538158107135
sI67
F0.0028696832084026914
sI68
F-0.008756321696737866
sI69
F-0.0025515091314870226
sI70
F-0.04571208002899921
sI71
F-0.009348196582286106
sI72
F0.008994831053633356
sI73
F-0.012056308304327936
sI74
F-0.006275322448773805
sI75
F0.003708719939124242
sI76
F0.006035916736311707
sI77
F0.01253062701482123
sI78
F3.095918927911526e-05
sI79
F-0.011413602025971544
sI80
F0.014901803180953055
sI81
F0.013904339709887336
sI82
F0.015006115933288895
sI83
F-0.04385103031886654
sI84
F0.0009564146648249741
sI85
F-0.02471949129408375
sI86
F0.00867722471116797
sI87
F-0.003228697022398938
sI88
F0.020208290373080445
sI89
F-0.00328929891385803
sI90
F0.015057216257873237
sI91
F0.022299989720704252
sI92
F0.009525158759800702
sI93
F0.016042672833214124
sI94
F0.0016846056543245599
sI95
F0.0015437566703304956
sI96
F0.006547267479318222
sI97
F0.0040537541828143345
sI98
F0.0020928401817858072
sI99
F0.003985606222873467
sI100
F-0.008145695414612488
sI101
F0.024406745529655015
sI102
F0.01836536596019217
sI103
F-0.014228099456064744
sI104
F0.019761568956331257
sI105
F0.0036072539954522527
sI106
F0.001710090252781068
sI107
F0.03193861370281084
sI108
F-0.01901483403763328
sI109
F0.006756203858843228
sI110
F0.02503534153344409
sI111
F-0.015397539517493635
sI112
F0.011286873270458577
sI113
F0.010943248120570206
sI114
F0.014299500608102002
sI115
F0.01169747145583615
sI116
F-0.010728515277975819
sI117
F0.002890391837113703
sI118
F0.016268260670432
sI119
F0.004621537159023176
sI120
F0.004912690962552292
sI121
F-0.024991616846768056
sI122
F0.0028077844614761193
sI123
F0.0027970420160202767
sI124
F-3.827562078835778e-05
sI125
F-0.0026113556095737566
sI126
F-0.025310267556394025
sI127
F0.01022828278666611
ssI43
g8
(tRp54
I64
F0.004281648972495512
sI65
F0.004580983864780094
sI66
F-0.038298620893546916
sI67
F-0.0026966353094830995
sI68
F0.002561149816611139
sI69
F-0.0035267386981365934
sI70
F-0.009536046858462372
sI71
F-0.00563990196910992
sI72
F-0.0006028561533820611
sI73
F-0.012069660024907107
sI74
F0.007239428793444119
sI75
F0.009811439410291101
sI76
F0.017767237753609933
sI77
F0.017571409232758135
sI78
F0.017339235462630855
sI79
F-0.010840881406950179
sI80
F0.002187074760316972
sI81
F-0.010224669531666907
sI82
F-0.022775441817820336
sI83
F-0.013205993425371505
sI84
F0.005684172912582224
sI85
F-0.033894821512273285
sI86
F0.023315941633171248
sI87
F0.02372896745322117
sI88
F-0.0073651729727562485
sI89
F0.013754201953317885
sI90
F-0.018082064227218423
sI91
F-0.007087108689665006
sI92
F-0.015612334285255424
sI93
F0.023016101096710144
sI94
F0.01271540665262949
sI95
F-0.004342911210536258
sI96
F0.0013880849634101855
sI97
F0.018982808672727294
sI98
F0.025989118472849158
sI99
F-6.037061226511256e-05
sI100
F0.017689556848790023
sI101
F0.014594459230829209
sI102
F0.016980398105445316
sI103
F-0.023039746393265396
sI104
F0.016741247690397122
sI105
F-0.005353124814314028
sI106
F0.005078927224155443
sI107
F0.013849480416836136
sI108
F-0.04278628626259936
sI109
F0.004233604717050673
sI110
F0.01119227083589663
sI111
F0.0024215668302543366
sI112
F-0.01819513065856209
sI113
F-0.007012491682523967
sI114
F0.0022800226374412153
sI115
F-0.0015378407318731506
sI116
F0.012650646585568973
sI117
F-0.02909300116420796
sI118
F0.0045168160472663175
sI119
F0.006837048335481526
sI120
F-0.0046289468345902356
sI121
F0.0037999155404313135
sI122
F0.0038907809220777123
sI123
F0.0056934675820959945
sI124
F-0.019618814376203362
sI125
F-0.006430915154653646
sI126
F0.022510269695284395
sI127
F0.020372532006056075
ssI44
g8
(tRp55
I64
F0.003164620142054492
sI65
F0.0007870974093361358
sI66
F0.016264192653952316
sI67
F0.007121368089940958
sI68
F-0.008957841629873675
sI69
F0.00241720292429674
sI70
F-0.015497332446777253
sI71
F-0.0038752635537163166
sI72
F-0.013372829494938652
sI73
F0.0006844251382718406
sI74
F0.005073575365423849
sI75
F0.006125938170824187
sI76
F0.008945386594485542
sI77
F0.012296168609590225
sI78
F-0.005380119598721998
sI79
F-0.01381178957766086
sI80
F0.0035115004710006823
sI81
F-0.00018677648171721857
sI82
F-0.003823602827606862
sI83
F0.0064851262634769875
sI84
F0.018016528290454026
sI85
F-0.03269586899697719
sI86
F0.009996191413016917
sI87
F-0.01159453054688127
sI88
F0.002264895533271162
sI89
F0.017104311115518633
sI90
F0.005048518785283324
sI91
F0.01513926609212121
sI92
F0.018319580221782705
sI93
F0.03813017519427404
sI94
F0.001974175566488279
sI95
F-0.001782684539330659
sI96
F-0.010258547275364632
sI97
F0.0037913328944539125
sI98
F0.00035182125869584235
sI99
F0.010205184224902467
sI100
F0.004373203522527084
sI101
F0.025248946291997344
sI102
F0.00527436104982658
sI103
F-0.0032887164829050967
sI104
F-0.04238732821578263
sI105
F-0.004420016599463204
sI106
F0.014023259306190588
sI107
F-0.0007569031817361895
sI108
F-0.031829369454381584
sI109
F0.01717151747263562
sI110
F-0.009921975575213859
sI111
F-0.0019463601324825218
sI112
F-0.0016978636599857195
sI113
F0.002907733584403563
sI114
F-0.005947259102834505
sI115
F-0.0005953228701801631
sI116
F0.014383867710044919
sI117
F-0.0019115512858170983
sI118
F-0.005844991421647116
sI119
F0.01662765846814905
sI120
F-0.002087413678909644
sI121
F-0.011686540480474268
sI122
F0.0074956196622089485
sI123
F0.0005394558884253642
sI124
F-0.019986025450038518
sI125
F-0.02434715425708134
sI126
F0.014767207429640487
sI127
F0.014873955790144609
ssI45
g8
(tRp56
I64
F-0.000896064278405103
sI65
F-0.006632238520936764
sI66
F0.0012478309644379018
sI67
F0.01481861439939745
sI68
F0.002727739590798688
sI69
F0.014374539184042771
sI70
F-0.017148312356568177
sI71
F-0.012543202492029988
sI72
F0.011881675192022231
sI73
F0.01890143177894986
sI74
F-0.022734424425816385
sI75
F-0.002029828315364169
sI76
F-0.003626516448166217
sI77
F-0.0057995076316232795
sI78
F-0.00582725027022912
sI79
F0.021359918900198203
sI80
F0.018923079142079156
sI81
F-0.007369758914735565
sI82
F0.004865951235886787
sI83
F0.034246854565382255
sI84
F0.00032590840920800393
sI85
F-0.03365350011389641
sI86
F0.013538722095093892
sI87
F-0.0035453990328253525
sI88
F-0.007407315329293729
sI89
F-0.006013385687862786
sI90
F-0.01633386953342532
sI91
F0.02353768304851053
sI92
F-0.005722450603867162
sI93
F0.03562175143087139
sI94
F-0.04485675621813234
sI95
F-0.0018219645350170998
sI96
F0.01947257768942875
sI97
F0.008632965651780965
sI98
F0.013170837277303725
sI99
F-0.0002723087652493932
sI100
F-0.013578272271114888
sI101
F0.021933843663716607
sI102
F0.0278777894858784
sI103
F-0.012722545272775975
sI104
F-0.005077208613521122
sI105
F0.015805934291931077
sI106
F-0.00036275929398614363
sI107
F-0.0019201886070720554
sI108
F0.03446499083533981
sI109
F0.00033406798714648897
sI110
F-0.013149488201844898
sI111
F0.009221299928217862
sI112
F0.003466638509105094
sI113
F0.0003638169187171602
sI114
F0.02108647963348752
sI115
F0.015240896786947171
sI116
F0.015930289573696025
sI117
F0.0108789435676226
sI118
F0.014751658641064936
sI119
F0.006509481143262803
sI120
F4.229239729705175e-05
sI121
F-0.008248537921572714
sI122
F0.009521070586330472
sI123
F0.013158191902426545
sI124
F-0.008527231169004624
sI125
F-0.004229931849845423
sI126
F-0.004453660731793229
sI127
F0.011128908366642964
ssI46
g8
(tRp57
I64
F0.004511132865003865
sI65
F0.019378219526242014
sI66
F-0.007072914245396693
sI67
F-0.009005926087362216
sI68
F-0.011121722064868445
sI69
F-0.008164676078306843
sI70
F-0.009275641455879462
sI71
F-0.013744167551821965
sI72
F0.015239304450371928
sI73
F-0.01427712773363249
sI74
F-0.003738433395845715
sI75
F0.005593668145975943
sI76
F-0.003040552299754238
sI77
F-0.015233627767350481
sI78
F0.00622975926678671
sI79
F-0.0020957250010334993
sI80
F0.009884271623217013
sI81
F0.012727036327149025
sI82
F-0.0037361346949487417
sI83
F0.016786636625816687
sI84
F0.023154103930628722
sI85
F-0.028123863272386865
sI86
F0.007787049602539306
sI87
F0.004542125275054876
sI88
F-0.01108694781225925
sI89
F-0.009000902256393814
sI90
F-0.009600447384099538
sI91
F0.004623827794678009
sI92
F-0.016538041434286645
sI93
F0.035349778420903574
sI94
F-0.009838526391941806
sI95
F-0.019867323963534377
sI96
F0.0075547812486512
sI97
F0.007966935458396999
sI98
F-0.018633839487928388
sI99
F0.023624392640317248
sI100
F-0.02049182009879525
sI101
F0.0317151101237818
sI102
F-0.001223362211473132
sI103
F-0.02445432091020263
sI104
F0.002785491142263771
sI105
F0.010624514461839351
sI106
F-0.015970294234305675
sI107
F-0.008983459051151131
sI108
F0.01650918657526126
sI109
F-0.006012682588921202
sI110
F-0.005730999354898028
sI111
F0.0077661324039135305
sI112
F-0.007299509903404338
sI113
F-0.004479362046622031
sI114
F-0.011728467337555195
sI115
F0.0012784406239380864
sI116
F0.013967623657721107
sI117
F-0.0008962278933922699
sI118
F0.009896030004854124
sI119
F0.007201965935047281
sI120
F0.0025701614272436854
sI121
F-0.009762685586911546
sI122
F0.0014397537816064968
sI123
F0.02180574215348525
sI124
F-0.01997720577953151
sI125
F-0.006171674941980474
sI126
F-0.004675235318930022
sI127
F0.03468814798442215
ssI47
g8
(tRp58
I64
F-0.0028752816411221557
sI65
F-0.009794914556555947
sI66
F0.00846012876422397
sI67
F-0.034279203543775984
sI68
F-0.0004876792065937434
sI69
F-0.007001653177710146
sI70
F-0.02528107406078839
sI71
F-0.01851492085004728
sI72
F0.02284033173072534
sI73
F0.017526192562335927
sI74
F-0.008285874902169652
sI75
F-0.003994400379920904
sI76
F-0.004902414611311935
sI77
F-0.024739787099476662
sI78
F0.005670319975749322
sI79
F-0.01949161274620444
sI80
F0.02363316301070584
sI81
F-0.008895873647969949
sI82
F0.039765044404638676
sI83
F-0.025343208867948577
sI84
F-0.008279242971323517
sI85
F-0.02261167517186876
sI86
F-0.01585479942542657
sI87
F0.002860406213136109
sI88
F-0.014030874076824932
sI89
F0.02337387414678444
sI90
F-0.005405391616576835
sI91
F-0.011419109494544064
sI92
F-0.0007160785104270807
sI93
F0.05298149450994609
sI94
F0.05749455679151141
sI95
F-0.01997444806638742
sI96
F0.0135959145499312
sI97
F-0.002381031548302443
sI98
F0.0004567247441579639
sI99
F0.00858508948617483
sI100
F-0.008155513373298881
sI101
F0.03487678899652722
sI102
F-0.014754417602148746
sI103
F-0.04701498292019077
sI104
F0.006500696634059055
sI105
F-0.007367097602642867
sI106
F-0.019339500208028652
sI107
F-0.01879052555496707
sI108
F0.020516158084658027
sI109
F-0.041524540729442345
sI110
F-0.019657672893193655
sI111
F-0.006378083903829141
sI112
F0.004391571564044157
sI113
F-0.00465321763088617
sI114
F-0.005596418071164005
sI115
F-0.011543829415011529
sI116
F0.019573578118113198
sI117
F0.008806324870881108
sI118
F-0.012824894148291134
sI119
F-0.018343963789918805
sI120
F0.004542555578910693
sI121
F-0.014939635389432432
sI122
F-0.007257135705393681
sI123
F0.003948034696200227
sI124
F-0.015080305914965932
sI125
F-0.015390100520801182
sI126
F-0.013056965572854318
sI127
F0.026371558957944987
ssI48
g8
(tRp59
I64
F-0.013730724605064682
sI65
F-0.0024206596184665778
sI66
F0.04452421453093325
sI67
F-0.0025770923605112936
sI68
F-0.005247092842747202
sI69
F0.010348542247832469
sI70
F-0.0020549819045112823
sI71
F0.008983177197945592
sI72
F-0.004911535085709218
sI73
F0.00302874282291137
sI74
F0.007186116243009415
sI75
F-0.011778181226365923
sI76
F0.000841695269292717
sI77
F-0.01076985085721711
sI78
F-0.013546190671417373
sI79
F-0.038924698386602945
sI80
F0.03386639033264794
sI81
F-0.017026521384416585
sI82
F-0.0169264976003805
sI83
F0.03853082143954046
sI84
F-0.031210677836936755
sI85
F-0.004564524310637409
sI86
F0.022923304657325904
sI87
F-0.00588885748927201
sI88
F0.0012717477727018911
sI89
F0.005285333985216161
sI90
F0.020135993868572753
sI91
F0.026545245738470218
sI92
F0.002949130497193424
sI93
F0.007720603409315543
sI94
F-0.0038347686215607782
sI95
F0.0002973412820714096
sI96
F0.013631960253585916
sI97
F0.01426564843453247
sI98
F-0.015375637880212406
sI99
F0.007964688078402738
sI100
F-0.011565944238261312
sI101
F0.04019952915195493
sI102
F-0.010034395144989654
sI103
F-0.014871244355206462
sI104
F-0.007916619305548406
sI105
F-0.015302103176390372
sI106
F0.005151225157947593
sI107
F0.027507071067761305
sI108
F0.01662974570312599
sI109
F-0.010980114331117003
sI110
F-0.015641066508444382
sI111
F-0.024612703035649327
sI112
F-0.008804378923340291
sI113
F-0.03404274969425281
sI114
F-0.004414442483897923
sI115
F-0.0122807196692942
sI116
F-0.013238974661838203
sI117
F-0.006056918731781586
sI118
F0.004807856471711414
sI119
F0.01319837276156272
sI120
F-0.012771781734103127
sI121
F-0.025939718986337026
sI122
F-0.0038480103280809355
sI123
F0.007519930640733125
sI124
F0.019997852549888666
sI125
F0.002304591131423848
sI126
F0.01985510138556867
sI127
F-0.01510491686075981
ssI49
g8
(tRp60
I64
F-0.017619055109904767
sI65
F-0.009060630614524428
sI66
F0.0072291955614096366
sI67
F-0.011010502555676437
sI68
F0.011043191401838652
sI69
F0.0056597067869984825
sI70
F-0.0019614446507993854
sI71
F-0.001765285568833493
sI72
F-0.005001248665685096
sI73
F-0.007479990764172096
sI74
F0.007488147835095175
sI75
F-0.0038736152731630577
sI76
F-0.00893775049945026
sI77
F0.0042907011984479985
sI78
F0.008836591537638713
sI79
F0.0045114920701971924
sI80
F0.02776247255401672
sI81
F0.035200360119388235
sI82
F-0.024164640426835627
sI83
F-0.01335071052274824
sI84
F-0.030129284330137916
sI85
F-0.017667500794459272
sI86
F-0.007664569079074322
sI87
F-0.014732815616412275
sI88
F0.026255296541678526
sI89
F0.00716060965843217
sI90
F-0.0012554429488156474
sI91
F-0.0020990644753346526
sI92
F0.023888072629998265
sI93
F-0.008950016598017741
sI94
F0.0064939875742193775
sI95
F-0.001925019511075986
sI96
F-0.00517356466223903
sI97
F-0.005021659624399905
sI98
F0.01095320730162203
sI99
F0.004167689785865272
sI100
F-0.010455519998901357
sI101
F0.029005750772432577
sI102
F-0.02347312911882403
sI103
F-0.013271647966865262
sI104
F0.015775305355848705
sI105
F-0.014990925920958811
sI106
F0.019569749915699326
sI107
F0.008821074369177418
sI108
F0.004442161888274048
sI109
F0.0011840437056948924
sI110
F-0.00014905655782131635
sI111
F-0.0004989294316044136
sI112
F-0.012180152492798474
sI113
F0.005303605242455241
sI114
F-0.011571881054163822
sI115
F-0.021385795912159316
sI116
F-0.03192491901088564
sI117
F-0.007807060244442632
sI118
F-0.013940587780018015
sI119
F-0.007404091580010423
sI120
F-0.0058688042505304775
sI121
F-0.034673747007086905
sI122
F0.005545245323327606
sI123
F0.009191145950912171
sI124
F-0.0020015133837186093
sI125
F0.0029955980524625967
sI126
F-0.017049635982843977
sI127
F-0.022528685854029364
ssI50
g8
(tRp61
I64
F-0.004651227448302655
sI65
F0.0004318231311166759
sI66
F-0.018275146297861464
sI67
F0.013933819306217277
sI68
F-0.0018149424757616308
sI69
F-0.00025333946916738587
sI70
F0.006212848858830724
sI71
F-0.002949408138545755
sI72
F-0.01023068985681694
sI73
F-0.006438334274141897
sI74
F0.005978414440927197
sI75
F-0.01862250273612905
sI76
F0.006819439511743605
sI77
F-0.0012563602097231037
sI78
F0.007479875621319306
sI79
F-0.011027537270794871
sI80
F0.009839470344854682
sI81
F0.017159592834596216
sI82
F0.011548710395118062
sI83
F-0.03594892193290543
sI84
F0.005267073631883798
sI85
F-0.02188692749802585
sI86
F-0.01651462371016663
sI87
F-0.03196408758017095
sI88
F0.0023067405592516314
sI89
F0.012462651286538978
sI90
F-0.011507913970331247
sI91
F0.006230195323752859
sI92
F-0.0013323774699244364
sI93
F0.02489116291055114
sI94
F0.007498411608433462
sI95
F0.015996906940551142
sI96
F0.00349789878571686
sI97
F-0.009992217424032947
sI98
F0.004070138429470697
sI99
F0.027127997079305542
sI100
F-0.00207256566315402
sI101
F0.009081849465966697
sI102
F0.011233193917747656
sI103
F0.007877085069946691
sI104
F0.025708181639627844
sI105
F-0.005622818691459683
sI106
F0.00267847493581698
sI107
F0.012872996511294005
sI108
F0.004740056836731547
sI109
F-0.004163929596879465
sI110
F0.002560299517035677
sI111
F0.017849839375827882
sI112
F-0.002280614916359751
sI113
F-0.008702562627118436
sI114
F-0.006782935518058106
sI115
F-0.01043738310558956
sI116
F-0.0014041242553086094
sI117
F0.004673478202755977
sI118
F0.01697910176801506
sI119
F0.003774377293421783
sI120
F0.005376847091665775
sI121
F-0.007971004943182845
sI122
F0.01264524467203561
sI123
F0.0018673230876173957
sI124
F-0.018822178485332554
sI125
F0.0063610068035062015
sI126
F0.02095887759142973
sI127
F-0.0008883237692780563
ssI51
g8
(tRp62
I64
F0.0022214976282946665
sI65
F0.018521949510748776
sI66
F-0.02442703222697216
sI67
F-0.02304146912707411
sI68
F0.006981461879992263
sI69
F0.013483211945776674
sI70
F0.0008553427948183055
sI71
F0.0011076447482630783
sI72
F-0.0041088311076760585
sI73
F-0.010171711988265482
sI74
F0.0027427957145265327
sI75
F0.022498918442514605
sI76
F-0.012534281435381071
sI77
F0.001211349947756578
sI78
F0.014644455030244821
sI79
F-0.01923126394382185
sI80
F0.021064912362651983
sI81
F0.010660443609887644
sI82
F-0.018596967570248958
sI83
F-0.031397273179855
sI84
F-0.017074030723060078
sI85
F-0.022649871922123015
sI86
F0.006325300691417938
sI87
F-0.03036343222479273
sI88
F0.008503299875314597
sI89
F0.0013686400045039462
sI90
F0.00039427276677382253
sI91
F0.005781191735334296
sI92
F0.01977885549331514
sI93
F-0.003504481758613525
sI94
F-0.001667992727120379
sI95
F-0.018491536199361946
sI96
F0.005629515802955785
sI97
F0.008892642689796127
sI98
F0.003265143675719023
sI99
F-0.002629520893763273
sI100
F-0.007031701056962565
sI101
F0.017274038459768274
sI102
F-0.012207588286106977
sI103
F-0.015983036456018365
sI104
F-0.007028229275260254
sI105
F-0.024245849674577432
sI106
F-0.014128520793418756
sI107
F-0.012259630883050938
sI108
F-0.01572482320987767
sI109
F-0.00011525567442368714
sI110
F-0.022237355173967153
sI111
F-0.018962985361050434
sI112
F-0.013353981872977585
sI113
F-0.010778214249649127
sI114
F-0.002666968868718559
sI115
F0.006400398672357718
sI116
F0.015868763619706988
sI117
F-0.0001329196445472054
sI118
F0.0007884710182789899
sI119
F-0.0011131907878731036
sI120
F0.0092098139001126
sI121
F-0.005601276244016617
sI122
F-0.012283246273771458
sI123
F0.01925911790759334
sI124
F0.008134905486287428
sI125
F0.008406363135953167
sI126
F0.02131352984829062
sI127
F0.0013369703461689323
ssI52
g8
(tRp63
I64
F-0.005469107302837712
sI65
F0.004832108464281623
sI66
F-0.018184107639382812
sI67
F0.022386935281086293
sI68
F0.001093829875291345
sI69
F0.007973530673342737
sI70
F0.005850108846486217
sI71
F-0.003954540689775565
sI72
F-0.006462947422717026
sI73
F0.008855407418460201
sI74
F-0.0011284239998022045
sI75
F0.006727823221549262
sI76
F-0.021383836545608447
sI77
F6.550700741102173e-05
sI78
F0.006724360698711893
sI79
F-0.00017443543861781258
sI80
F0.03282195378400358
sI81
F-0.01644800143853018
sI82
F0.02331473471577838
sI83
F0.011576377271358747
sI84
F0.01319053314435654
sI85
F-0.020001560595413373
sI86
F-0.002262189430769115
sI87
F0.00121453462952217
sI88
F0.008311548310951544
sI89
F0.0081948256558895
sI90
F-0.015353125900475151
sI91
F0.003980242743575156
sI92
F-0.013367158825973346
sI93
F0.015337665203365922
sI94
F-0.004900080450626363
sI95
F0.02203888164201551
sI96
F0.004771363421829576
sI97
F0.002379871267308572
sI98
F0.010422543110184328
sI99
F-0.0004170934654999456
sI100
F0.015267625980947606
sI101
F-0.01006099395521322
sI102
F-0.0019337896919506417
sI103
F-0.009273362389761055
sI104
F-0.03364406353485001
sI105
F-0.009328005871364071
sI106
F0.007595359487077765
sI107
F0.004512544263127493
sI108
F-0.035308513844198336
sI109
F-0.020455933926210115
sI110
F-0.009551623782139864
sI111
F0.0002179384971670835
sI112
F-0.011158767389239245
sI113
F0.0060867881400730696
sI114
F0.014481196696895415
sI115
F-0.013847753515653094
sI116
F0.008024888891247885
sI117
F-0.021985262519453094
sI118
F-0.0187039683710193
sI119
F0.006302415517468117
sI120
F0.0027891722150045614
sI121
F-0.002485827740030728
sI122
F-0.007730938345450569
sI123
F-0.00242060266449428
sI124
F-0.003022720627256272
sI125
F-0.008554742256634842
sI126
F0.011334739504053662
sI127
F-0.009272987145276879
ssI53
g8
(tRp64
I64
F-0.010408566477726719
sI65
F-0.0018627294132258125
sI66
F0.007745663304682589
sI67
F-0.003099484009771822
sI68
F0.010138145271143501
sI69
F0.0041453501940300515
sI70
F0.002075273831675388
sI71
F0.004792910709158575
sI72
F-0.002738871704023528
sI73
F-0.006583174203008701
sI74
F-0.00995176877453255
sI75
F-0.0024337841354790703
sI76
F-0.0008100864885680211
sI77
F-0.0006638824262780789
sI78
F-0.025660402122104953
sI79
F0.004764132532379897
sI80
F0.016572110128064484
sI81
F-0.009139680269559386
sI82
F0.0053009898190522235
sI83
F0.03776183996302898
sI84
F0.002943887455817238
sI85
F-0.03227113120473484
sI86
F0.006671164482018745
sI87
F0.004190188568473183
sI88
F0.01671581337592424
sI89
F-0.007418713856507567
sI90
F-0.00969468736812511
sI91
F0.014535611727620875
sI92
F-0.01223206636437259
sI93
F0.01087952453819551
sI94
F-0.04829805207632049
sI95
F0.0010714246167337408
sI96
F0.0163231566658651
sI97
F0.006223538138855795
sI98
F0.004467525600105851
sI99
F0.004525460528363867
sI100
F-0.016650397234061785
sI101
F0.03476191820024365
sI102
F0.003139704829427609
sI103
F0.008670406329858079
sI104
F0.016452215378289527
sI105
F0.00573855212805964
sI106
F-0.0021954212452369552
sI107
F0.01644747044341727
sI108
F0.014429986992764732
sI109
F-0.02465196045477091
sI110
F-0.0021784423081308885
sI111
F-0.01621680655219181
sI112
F0.00920846703420508
sI113
F0.005610426231140529
sI114
F-0.0044413387625875655
sI115
F-0.0028054344214983326
sI116
F0.00019939529627740823
sI117
F-0.024063101718001207
sI118
F0.011772354795393519
sI119
F0.011534598054579978
sI120
F0.002694706896816395
sI121
F0.01309376929145619
sI122
F-0.004142924693587298
sI123
F-0.006088861064360706
sI124
F-0.024524849783149092
sI125
F-0.00785191290102814
sI126
F-0.005413291726083285
sI127
F-0.017034561701131753
ssI54
g8
(tRp65
I64
F-0.002617172334635441
sI65
F0.004085497963278388
sI66
F0.003951138709132385
sI67
F0.0026688925064776103
sI68
F-0.005807080469070973
sI69
F0.00807620062959088
sI70
F-0.00029138061798758064
sI71
F0.005551419527299356
sI72
F-0.005189895770386054
sI73
F-0.0006376347658870921
sI74
F0.01573871595954828
sI75
F-0.0078105660026855424
sI76
F0.0008817326266911203
sI77
F0.018370523638095698
sI78
F0.0050550536341901495
sI79
F0.012569600506295206
sI80
F0.04235242314292256
sI81
F0.003056248039721771
sI82
F-0.010450591617141543
sI83
F0.017351990550290016
sI84
F0.012156853718131565
sI85
F-0.02038677312551731
sI86
F0.0001550337200733946
sI87
F0.010500868104417204
sI88
F-0.016065635009876875
sI89
F-0.035112568885343295
sI90
F-0.0030252164010274273
sI91
F0.008278721604344378
sI92
F-0.0018417827680806147
sI93
F0.010412249816999043
sI94
F-0.007232885411820942
sI95
F0.0029594215376740262
sI96
F0.02431549625355674
sI97
F0.003767330512448179
sI98
F-0.0026457460305908675
sI99
F-8.28976537831141e-05
sI100
F-0.006931132021335972
sI101
F0.013152331629770161
sI102
F0.001967542300238626
sI103
F-0.008146590367565914
sI104
F-0.0071369585633381
sI105
F-0.0159204420036074
sI106
F-0.017704849437081158
sI107
F-0.011354410743948046
sI108
F0.03229336603355971
sI109
F-0.018953401947180166
sI110
F-0.007952370351416964
sI111
F-0.0004739778738500017
sI112
F0.007960701868814592
sI113
F0.0021167356536525087
sI114
F-0.009078121550828943
sI115
F-0.013034919398422253
sI116
F0.017858989213884825
sI117
F-0.00973364281819603
sI118
F-0.009224340053167976
sI119
F0.0032589837252216067
sI120
F0.0028128121293695594
sI121
F-0.0026968516632146044
sI122
F0.00012573350752779808
sI123
F-0.011673430719485902
sI124
F0.002296823938185419
sI125
F-0.009295513567274831
sI126
F-0.015731845343840978
sI127
F-0.003947969369071428
ssI55
g8
(tRp66
I64
F-0.005621032292335442
sI65
F0.0038473430447942903
sI66
F-0.0006620806924365085
sI67
F-0.010392929192746125
sI68
F-0.0045678616383608255
sI69
F-0.02291875251840149
sI70
F0.00926231194350479
sI71
F0.0028160250643244726
sI72
F-0.018396684752973482
sI73
F-0.00682960595188966
sI74
F-0.011877215744095703
sI75
F-0.01192754153908407
sI76
F-0.00703394115849498
sI77
F-0.015693306475711825
sI78
F-0.008225062568312057
sI79
F-0.02350103584477716
sI80
F0.0492233943983697
sI81
F-0.016710701088412903
sI82
F0.03698532504583057
sI83
F-0.04672670000194303
sI84
F-0.02056435211253035
sI85
F-0.03712948118077668
sI86
F-0.015713845958633545
sI87
F0.00017890219658571956
sI88
F0.002171469579074525
sI89
F0.01841477103295457
sI90
F0.009061011041132216
sI91
F-0.0070361061746666105
sI92
F-0.014141127689880862
sI93
F0.00474017617676131
sI94
F0.051948247792995415
sI95
F0.011562670147139527
sI96
F0.015322796529830743
sI97
F0.011129716667520422
sI98
F-0.008254857683835489
sI99
F0.014320042272239425
sI100
F-0.01853981785005301
sI101
F0.02834518346819139
sI102
F-0.01342374518023893
sI103
F-0.04171190951844535
sI104
F0.0014552098583301561
sI105
F0.01638877141780616
sI106
F-0.01178231615230165
sI107
F-0.027933513906789095
sI108
F0.004293449970480555
sI109
F-0.008938624240164212
sI110
F0.015009147293593894
sI111
F0.0023171783441645975
sI112
F0.0007614720868395649
sI113
F-0.0013352838835930996
sI114
F-0.003133625459093507
sI115
F-0.0008179807771087374
sI116
F0.018018122048398307
sI117
F0.002646787267497077
sI118
F-0.009519887584300439
sI119
F0.024420084131547348
sI120
F0.003835098128279517
sI121
F-0.0043069346951167395
sI122
F-0.011598826397525241
sI123
F0.004047491932374177
sI124
F0.015596191177650265
sI125
F-0.023608128207883446
sI126
F-0.009257286226477585
sI127
F-0.0028617557199998546
ssI56
g8
(tRp67
I64
F0.007709021474937115
sI65
F-0.018018632050182518
sI66
F0.06871713260764147
sI67
F-0.006291651199948011
sI68
F0.021123315928723563
sI69
F-0.004179697426442144
sI70
F0.04324547809379563
sI71
F-0.001855351344649891
sI72
F-0.00874604345241282
sI73
F0.022296514091935175
sI74
F-0.004941112324135803
sI75
F-0.017525940243227168
sI76
F0.0018273749880182357
sI77
F0.008763288423439944
sI78
F-0.005973829999622215
sI79
F-0.020907238563452113
sI80
F0.051047913608262
sI81
F-0.00851082043479725
sI82
F-0.0594848666038998
sI83
F0.045169849078925385
sI84
F-0.06161735754329532
sI85
F0.0480266834798838
sI86
F-0.0014859585956041284
sI87
F-0.0030145317053198125
sI88
F0.006624855738666599
sI89
F-0.007022231857090369
sI90
F-0.014122537879806918
sI91
F0.020201178022855072
sI92
F0.00805696414439993
sI93
F-0.02841525344386095
sI94
F-0.01947872184857368
sI95
F-0.007860006590503982
sI96
F-0.010647571361925285
sI97
F-0.0032633761539194654
sI98
F-0.019253392434256077
sI99
F0.02920082836083232
sI100
F-0.015943151866497807
sI101
F-0.0191977916753451
sI102
F-0.01410555851885509
sI103
F-0.005653413273841671
sI104
F0.014726670433798222
sI105
F0.004846702035528048
sI106
F-0.0018493676275783486
sI107
F0.04017980578709971
sI108
F-0.007815843253412398
sI109
F-0.025735789267274486
sI110
F0.0007813101345118982
sI111
F0.0077572226126689054
sI112
F0.0058619416230840105
sI113
F0.006994008721288074
sI114
F-0.044185164527766004
sI115
F-0.002518109063617888
sI116
F-0.01654515414161302
sI117
F-0.012202763704219242
sI118
F-0.005685580302376446
sI119
F0.014398750767606081
sI120
F-0.015083079943126486
sI121
F-0.011060937823802667
sI122
F0.0031619555573343824
sI123
F-0.015991316304565753
sI124
F0.04675163138333838
sI125
F0.005862893858085382
sI126
F0.01982987773809775
sI127
F-0.009203925273142245
ssI57
g8
(tRp68
I64
F0.0028539326030807065
sI65
F-0.011585905659619767
sI66
F0.023159516827517768
sI67
F-0.02389007513554114
sI68
F-0.002038621195964041
sI69
F-0.002930465795460572
sI70
F0.05115186268542005
sI71
F0.009819803383066397
sI72
F0.000967272347902499
sI73
F-0.01283676998397597
sI74
F-0.0037420913492477383
sI75
F-0.02944505777433848
sI76
F-0.015002128215853087
sI77
F0.017692292388343352
sI78
F0.011059304939837042
sI79
F-0.011458471183732003
sI80
F0.01774004831836421
sI81
F0.03123344657639363
sI82
F-0.026935847089714984
sI83
F-0.017508665648771356
sI84
F-0.028262834743337257
sI85
F0.03797077486748647
sI86
F0.0029623908040496616
sI87
F-0.009537163808190231
sI88
F0.02908949879099147
sI89
F-0.0032787432791582523
sI90
F-0.029639012113644687
sI91
F0.007551708618719777
sI92
F0.006465462564081261
sI93
F-0.03306861318042524
sI94
F0.01461710650910286
sI95
F-0.0022210229667163
sI96
F-0.0018673226075276348
sI97
F0.016590933858006817
sI98
F0.015202046112715821
sI99
F-0.005648965124075517
sI100
F-0.01021974321748923
sI101
F-0.021638153552238925
sI102
F-0.012935473165364095
sI103
F-0.0009370430507558064
sI104
F0.0015798614646460813
sI105
F-0.0029539753002616083
sI106
F0.017805647351060636
sI107
F0.027426726822819665
sI108
F0.006335382291280207
sI109
F-0.0028009816197203667
sI110
F0.02295636544870772
sI111
F-0.0049709555345408656
sI112
F0.007731060451493707
sI113
F-0.00016048570467980169
sI114
F-0.03896827479130338
sI115
F-0.019684470631322205
sI116
F-0.047230875105870956
sI117
F-0.02332215238886504
sI118
F0.003534386686247369
sI119
F0.018173220912943076
sI120
F-0.00020331717465780946
sI121
F0.012789333363420547
sI122
F0.011557351338185346
sI123
F-0.007117315515997242
sI124
F0.006432124440444161
sI125
F-0.004504189564039327
sI126
F-0.002542332443887142
sI127
F0.013504503026195368
ssI58
g8
(tRp69
I64
F0.019999504524365216
sI65
F0.008055575974232584
sI66
F-0.02198331286528935
sI67
F-0.016055027755855086
sI68
F0.004565750376702959
sI69
F-0.006184131178449886
sI70
F0.041501870675566384
sI71
F-0.0006542207731439146
sI72
F0.007036395292380273
sI73
F0.015549479893576962
sI74
F0.004204040559912643
sI75
F-0.016516706723120486
sI76
F0.004564205904385302
sI77
F0.010517899604416531
sI78
F-0.0037745702436620962
sI79
F-0.016555745152912856
sI80
F0.02638208397426722
sI81
F0.020537137366156397
sI82
F-0.008187928858490788
sI83
F-0.057149197461649794
sI84
F-0.039488883668691535
sI85
F0.04931329890693555
sI86
F0.0015613828362136765
sI87
F-0.0024184206617444155
sI88
F0.0012488701472499913
sI89
F-0.01395622415073427
sI90
F-0.003659850889368232
sI91
F-0.00011327544967772148
sI92
F0.014387908066586729
sI93
F-0.03514200866989091
sI94
F0.0058408703052211415
sI95
F-0.0012136995614740614
sI96
F0.0044049436860340175
sI97
F0.006645029465954567
sI98
F0.010028028706739387
sI99
F0.010606353558254542
sI100
F-0.006539991642355401
sI101
F-0.015552153996785154
sI102
F-0.01880437766701761
sI103
F-0.01132642733781049
sI104
F0.022640905163956285
sI105
F0.0011946481211799211
sI106
F0.0075336911394053956
sI107
F-0.0012972189216120598
sI108
F-0.020602473034462113
sI109
F0.0108136308423857
sI110
F0.005998422684521168
sI111
F0.004630796654858063
sI112
F0.004646342941772053
sI113
F-0.0014022737164844782
sI114
F-0.033086825090880734
sI115
F-0.0006447719996965156
sI116
F-0.016674782438106685
sI117
F-0.004785822664270715
sI118
F0.003637210207436073
sI119
F0.02565356827414131
sI120
F-0.023301755456501413
sI121
F0.010659344355748
sI122
F0.012479350672277461
sI123
F-0.004423372367396422
sI124
F0.0263965900328341
sI125
F-0.01640146456837752
sI126
F0.008705936663161048
sI127
F0.0042574548117611565
ssI59
g8
(tRp70
I64
F0.018375788633685643
sI65
F0.014841465839802852
sI66
F-0.045826486172914974
sI67
F-0.018264583199996888
sI68
F-0.0051511400835893475
sI69
F0.0022374181858955994
sI70
F0.036117604550194075
sI71
F0.01992948652285848
sI72
F0.015140746411600396
sI73
F0.0036218207588953736
sI74
F0.0008689585558535275
sI75
F0.015616801205492394
sI76
F-0.009131550197891922
sI77
F0.004552126538636759
sI78
F-0.016095753533255836
sI79
F-0.019792172626985172
sI80
F0.015028958974956756
sI81
F0.02185047246820965
sI82
F0.0023458159973091136
sI83
F-0.017273033654925773
sI84
F-0.019925603158157477
sI85
F0.03443256327377168
sI86
F-0.008770217165051384
sI87
F0.010248527258217706
sI88
F-0.0009365829997756553
sI89
F-0.006017196847226343
sI90
F-0.016823391796881467
sI91
F0.008849451747379555
sI92
F0.009171032794785818
sI93
F-0.03849696760873585
sI94
F0.013890136659639245
sI95
F-0.006896128327191546
sI96
F-0.00880816824831323
sI97
F-0.01960989452451758
sI98
F0.010017889249345142
sI99
F0.011119759822913345
sI100
F-0.007221617255891331
sI101
F-0.021887498410199074
sI102
F-0.004967542164495067
sI103
F0.004394020935451992
sI104
F0.007876660750660314
sI105
F0.009382722504149992
sI106
F-0.014434615109718224
sI107
F-0.0023159417152721308
sI108
F-0.047827800631421793
sI109
F0.003669368111210548
sI110
F-0.007498291490884294
sI111
F-0.0006283899923763209
sI112
F0.005351667818213386
sI113
F-0.011207971277564002
sI114
F0.005033185082203047
sI115
F0.006022574979103433
sI116
F-0.0010933685988598024
sI117
F-0.0035383131168567317
sI118
F-0.00039840038613865277
sI119
F0.03392653830314266
sI120
F-0.004350067423869701
sI121
F0.0002288276434512885
sI122
F0.03145364778438135
sI123
F-0.010507312658479125
sI124
F0.03560194547861398
sI125
F-0.0008380457239818072
sI126
F0.03591462976223045
sI127
F-0.008279562539032023
ssI60
g8
(tRp71
I64
F0.022476803744255817
sI65
F-0.006630269095851089
sI66
F-0.03636686277843228
sI67
F-0.013277770094442231
sI68
F-0.008867207290426133
sI69
F-0.008731217798202363
sI70
F0.033340992040075706
sI71
F-0.008439143403044424
sI72
F0.013121580400682842
sI73
F0.005501533989803353
sI74
F-0.013533301024144177
sI75
F0.007761670648649062
sI76
F0.012986762149084476
sI77
F0.007815867327569755
sI78
F0.003218697583132507
sI79
F-0.018025049966633597
sI80
F0.003113139163863407
sI81
F0.0009386186133395113
sI82
F0.016033849424401045
sI83
F0.03270188889688875
sI84
F-0.026005394360753786
sI85
F0.0378150622237839
sI86
F-0.008379052629078853
sI87
F0.020134198087767684
sI88
F-0.003410455539108563
sI89
F-0.004390500780964979
sI90
F-0.007963481255847768
sI91
F0.019891900695230762
sI92
F-0.01961637436575678
sI93
F-0.04955920875260298
sI94
F-0.019703510628349883
sI95
F-0.0031712568928308764
sI96
F0.0016366321867810332
sI97
F-0.013394623834991471
sI98
F0.011773931091588091
sI99
F0.015818240481777004
sI100
F-0.022415141573291393
sI101
F0.0028157638686552564
sI102
F-0.0012699830074310962
sI103
F-0.001264949241014269
sI104
F-0.043015385775206506
sI105
F-0.010044621644326323
sI106
F-0.015109991159672702
sI107
F0.013356330510105773
sI108
F-0.0467632666947139
sI109
F-0.018615447879483493
sI110
F-0.007725785752000096
sI111
F0.005113528721927038
sI112
F-0.010602750121391212
sI113
F0.01337993346292253
sI114
F0.00719038506416571
sI115
F-0.0008510694658450982
sI116
F0.020619165718867283
sI117
F0.0002954448418942932
sI118
F0.0019297487406595476
sI119
F0.03891830897308225
sI120
F-0.01294632186002638
sI121
F0.001028346478372521
sI122
F0.0049989455385245195
sI123
F-0.00800895511885098
sI124
F0.030997689279629308
sI125
F0.017260128417686826
sI126
F0.019549402082623346
sI127
F-0.011918587911129073
ssI61
g8
(tRp72
I64
F0.018840607026838464
sI65
F-0.0061855423042368705
sI66
F0.0014176296680464505
sI67
F-0.002786685070126978
sI68
F-0.006827890014290377
sI69
F-0.02223133679900606
sI70
F0.03458320567150739
sI71
F0.006171694109100569
sI72
F0.004006715639738678
sI73
F0.006984175197176002
sI74
F-0.009502318891820955
sI75
F0.01923842772207531
sI76
F-0.02531227170055673
sI77
F-0.012346884258676001
sI78
F0.0012197275747923546
sI79
F-0.005954495558515187
sI80
F0.016872582436172796
sI81
F-0.014383046699945069
sI82
F0.035768084891751845
sI83
F0.0361899588870584
sI84
F-0.029607910223951168
sI85
F0.03102273724907159
sI86
F0.002106506807619042
sI87
F0.005472629814341898
sI88
F-0.0025319692128668385
sI89
F-0.021780180612466487
sI90
F-0.031836428961978996
sI91
F-0.011717451479653489
sI92
F-0.0019529341926335297
sI93
F-0.0341440040035609
sI94
F-0.06566852587930509
sI95
F-0.013209283358933876
sI96
F0.01875882323622133
sI97
F0.015343222627484353
sI98
F0.026119683071719794
sI99
F-0.0021596565953303005
sI100
F-0.017931990156766525
sI101
F-0.017004788845844648
sI102
F0.01600978853776449
sI103
F-0.007993780653688567
sI104
F-0.001960131581288981
sI105
F0.010512614866129321
sI106
F-0.01870176411606338
sI107
F-0.01668021322578093
sI108
F0.03338254044203758
sI109
F-0.034109645016821954
sI110
F-0.0052301027773847195
sI111
F-0.004728382877262236
sI112
F-0.004655269889191788
sI113
F-0.00941891021989841
sI114
F-0.009135652300762229
sI115
F-0.0036242880005409287
sI116
F0.02986997841759318
sI117
F-0.0172717323341163
sI118
F0.014414924780724252
sI119
F0.015222632222962768
sI120
F0.009602742224679262
sI121
F0.015741790052928226
sI122
F0.022550267716961666
sI123
F0.0007549138086626535
sI124
F0.003749141157589242
sI125
F0.0006283352888659195
sI126
F-0.03176178390592436
sI127
F-0.0208997812047946
ssI62
g8
(tRp73
I64
F-0.010998774922482
sI65
F0.006167564785844518
sI66
F-0.0020979225901817185
sI67
F-0.02943389820963845
sI68
F-0.001990594446996656
sI69
F-0.014805829336515027
sI70
F0.04415533348925831
sI71
F-0.022356971748676933
sI72
F0.004882593370803108
sI73
F0.007232037578389645
sI74
F0.0006011326547367378
sI75
F-0.0011937453274294056
sI76
F-0.01068198503439551
sI77
F-0.015322562097183082
sI78
F-0.0065942487503107905
sI79
F0.006387903026559513
sI80
F0.04059295984874727
sI81
F-0.012214205943061775
sI82
F0.009314025374898621
sI83
F0.006703925003658171
sI84
F-0.03554076188954898
sI85
F0.043261476994352
sI86
F0.005348257960150941
sI87
F-0.0028872260770991904
sI88
F-0.009361942016451576
sI89
F-0.03659642241696745
sI90
F-0.011780944072889151
sI91
F-0.012890416796609698
sI92
F0.008397240216053344
sI93
F-0.05810154947262957
sI94
F0.005225627935735445
sI95
F0.014350423786212142
sI96
F0.028441256238917453
sI97
F0.009755510595412579
sI98
F0.002743144473316047
sI99
F-0.0031232820432872095
sI100
F-0.01053488107608589
sI101
F-0.0047036796063119534
sI102
F0.004056306321174718
sI103
F-0.008914304762590175
sI104
F0.010470641878557382
sI105
F0.001224397006348889
sI106
F-0.03830456968360964
sI107
F-0.043668716617345046
sI108
F0.02336262425004329
sI109
F-0.012205249373899753
sI110
F0.0008348823199692743
sI111
F-0.010053021831536724
sI112
F-0.011050939932125754
sI113
F0.0046147576982933074
sI114
F-0.003983987176448504
sI115
F-0.012783696871264506
sI116
F0.03581552185382129
sI117
F-0.008579796203674016
sI118
F-0.020210509291632258
sI119
F0.020113914886770983
sI120
F0.004685292396328576
sI121
F-0.00227608281660468
sI122
F0.02883549702659339
sI123
F-0.012447807311954285
sI124
F0.020508865551912645
sI125
F-0.0009074430617577664
sI126
F-0.04226664427575447
sI127
F-0.010786346712893476
ssI63
g8
(tRp74
I64
F0.004023310062165869
sI65
F0.010666633063835551
sI66
F0.021066412443242356
sI67
F-0.054885566063206694
sI68
F0.020449002710779336
sI69
F0.014945050293350599
sI70
F0.04833863255125848
sI71
F-0.001870135848890739
sI72
F0.005273903066815202
sI73
F-0.0012154949606074568
sI74
F-0.01724892066762094
sI75
F-0.009612987225126903
sI76
F-0.009460909647951503
sI77
F-0.019043318444197068
sI78
F-0.002048105750054984
sI79
F0.0015535107585199234
sI80
F0.054645862855148546
sI81
F-0.012482836180366533
sI82
F0.04863890689604105
sI83
F-0.042572040207306844
sI84
F-0.039445113539073096
sI85
F0.058169474435009624
sI86
F-0.006315102612887337
sI87
F0.025311510421948492
sI88
F-0.01492749344288019
sI89
F0.01970967838135518
sI90
F-0.007347951648224416
sI91
F-0.009816975771029192
sI92
F-0.0006071700433265939
sI93
F-0.038613479344364335
sI94
F0.055090958240513396
sI95
F-0.01029661574186743
sI96
F0.023814353537293595
sI97
F0.030689929439777105
sI98
F0.007319874459461684
sI99
F0.018264219564722003
sI100
F-0.015519353360487842
sI101
F-0.012410176985598497
sI102
F0.014723714471372829
sI103
F-0.009839376968977395
sI104
F-0.019535709122509
sI105
F-0.0015816430958452248
sI106
F-0.0106846748177771
sI107
F-0.023464284369155677
sI108
F0.03405860807939922
sI109
F-0.019522521207106083
sI110
F-0.0021676821390340384
sI111
F-0.006642297520105563
sI112
F-0.0017934872372105228
sI113
F0.007507450009321984
sI114
F-0.014261044494245504
sI115
F-0.01851803286783533
sI116
F0.03027006123260518
sI117
F-0.002900003344351454
sI118
F-0.004423379825800212
sI119
F0.02478001097585206
sI120
F0.0030796706411322606
sI121
F0.006164396438212217
sI122
F-0.013000372100209441
sI123
F-0.00018361577541753623
sI124
F0.04119265943207516
sI125
F-0.013410167804510006
sI126
F-0.022692375686897134
sI127
F-0.015866173339603905
ssI64
g8
(tRp75
I128
F-0.01684497515161294
sI129
F-0.03945030661499922
sI130
F0.02098294692773619
sI131
F-0.019004033657739828
ssI65
g8
(tRp76
I128
F-0.015841973095698247
sI129
F0.0052150729189931275
sI130
F-0.01279633352682823
sI131
F0.026763590274926485
ssI66
g8
(tRp77
I128
F-0.07784939832323783
sI129
F0.0114288586138848
sI130
F-0.06100886665862547
sI131
F0.04064976009718182
ssI67
g8
(tRp78
I128
F0.008183934839206647
sI129
F-0.03832647447077344
sI130
F-0.038256593688062876
sI131
F-0.0057832437622856924
ssI68
g8
(tRp79
I128
F-0.01214439216176002
sI129
F-0.02058367388932906
sI130
F0.0051413269629774026
sI131
F0.012658640628483993
ssI69
g8
(tRp80
I128
F-0.0037741271593726275
sI129
F-0.007138852720493122
sI130
F-0.0016938407941804476
sI131
F-0.0024574117603166404
ssI70
g8
(tRp81
I128
F0.009891376469403294
sI129
F-0.07180578705616857
sI130
F0.024763382825875
sI131
F-0.07980685200577103
ssI71
g8
(tRp82
I128
F0.009656303036747799
sI129
F-0.004114627516616503
sI130
F0.013017410795352772
sI131
F0.02334714793105233
ssI72
g8
(tRp83
I128
F-0.0028054308261908187
sI129
F-0.023497877303637574
sI130
F-0.005321045904665845
sI131
F-0.01933094621897027
ssI73
g8
(tRp84
I128
F-0.021348313561089655
sI129
F-0.018371895623407974
sI130
F-0.014795181300492156
sI131
F-0.0026552588653159384
ssI74
g8
(tRp85
I128
F0.06356293006064537
sI129
F0.05116786369226905
sI130
F0.05205641370586291
sI131
F0.06525966904243403
ssI75
g8
(tRp86
I128
F-0.03212625198757542
sI129
F-0.012922537428357068
sI130
F-0.03473030523710141
sI131
F-0.01873974708857117
ssI76
g8
(tRp87
I128
F-0.004125783499704488
sI129
F-0.024428240053987412
sI130
F-0.013880675102508795
sI131
F0.013339918995905847
ssI77
g8
(tRp88
I128
F-0.02719521795574284
sI129
F-0.024439466740570688
sI130
F-0.0038375141107603126
sI131
F0.017840266175782174
ssI78
g8
(tRp89
I128
F0.019172166635437495
sI129
F-0.010584157773048082
sI130
F-0.010923092688760993
sI131
F-0.00932966910255377
ssI79
g8
(tRp90
I128
F0.02548750321301548
sI129
F0.008974050950654748
sI130
F-0.023181231333077982
sI131
F-0.010068569501329406
ssI80
g8
(tRp91
I128
F0.047340001500651104
sI129
F-0.0361396120877512
sI130
F0.061456378137560774
sI131
F-0.032750212583584765
ssI81
g8
(tRp92
I128
F-0.016854481732406074
sI129
F0.0034721210167370058
sI130
F-0.02122026785167257
sI131
F0.03233953582278434
ssI82
g8
(tRp93
I128
F-0.034510213349778975
sI129
F0.03628457134489765
sI130
F-0.043368397420039465
sI131
F0.029227158819504277
ssI83
g8
(tRp94
I128
F-0.05693445819270729
sI129
F0.050073643881353394
sI130
F-0.05617480468661038
sI131
F0.035605337506503305
ssI84
g8
(tRp95
I128
F0.03617278674544734
sI129
F-0.07110837819442427
sI130
F0.019260666391609147
sI131
F-0.05505287465565436
ssI85
g8
(tRp96
I128
F0.0267815554260651
sI129
F-0.05660398208113657
sI130
F0.03167682617907567
sI131
F-0.07583411885299303
ssI86
g8
(tRp97
I128
F-0.047802260402482796
sI129
F-0.015804714164150864
sI130
F0.018561603880527355
sI131
F-0.007924342085093449
ssI87
g8
(tRp98
I128
F-0.031547243378287
sI129
F0.00014041053452368944
sI130
F0.022426078028889213
sI131
F-0.02356005575223301
ssI88
g8
(tRp99
I128
F-0.01804756616993668
sI129
F0.012762793413811117
sI130
F-0.006992365279101598
sI131
F0.007704826203417053
ssI89
g8
(tRp100
I128
F-0.022348897368203734
sI129
F0.017376193915311127
sI130
F-0.05717149534708823
sI131
F-0.021148846533070833
ssI90
g8
(tRp101
I128
F-0.0037967232220721832
sI129
F-0.03212500308045839
sI130
F0.01792100292326897
sI131
F-0.013491392065393078
ssI91
g8
(tRp102
I128
F-0.027153368688345215
sI129
F0.006765675383142871
sI130
F0.0056893667411832445
sI131
F0.0028111574773149886
ssI92
g8
(tRp103
I128
F0.011130042094714219
sI129
F-0.003133863650695207
sI130
F0.010565824440405738
sI131
F-0.03963282528858026
ssI93
g8
(tRp104
I128
F0.005800333155508957
sI129
F-0.03427841752418785
sI130
F0.037524953299545825
sI131
F-0.049147987258317774
ssI94
g8
(tRp105
I128
F-0.057075501938098204
sI129
F0.04284536708515809
sI130
F-0.0798395170805911
sI131
F0.023138304307889948
ssI95
g8
(tRp106
I128
F0.016370475980218235
sI129
F0.00901368848053513
sI130
F9.451413730045678e-05
sI131
F0.0131636806932817
ssI96
g8
(tRp107
I128
F-0.014377307555148494
sI129
F0.010325219750401923
sI130
F0.00688010228803534
sI131
F-0.019204487029603118
ssI97
g8
(tRp108
I128
F0.04408483413409341
sI129
F0.053520889445690376
sI130
F0.0523399799453666
sI131
F0.04498764871345817
ssI98
g8
(tRp109
I128
F-0.028549381935236345
sI129
F-0.006835083785911563
sI130
F-0.01504082135394987
sI131
F0.001831914404520213
ssI99
g8
(tRp110
I128
F-0.01333154292457412
sI129
F-0.008621020224845854
sI130
F0.011820461459967915
sI131
F0.0036733395010543355
ssI100
g8
(tRp111
I128
F-0.0067480192068293835
sI129
F-0.026053650426849637
sI130
F-0.00029268632229164943
sI131
F-0.04954543736007176
ssI101
g8
(tRp112
I128
F0.029920292491244078
sI129
F-0.05063194266529847
sI130
F0.04415458718007166
sI131
F-0.05855992864933935
ssI102
g8
(tRp113
I128
F-0.010892603967822951
sI129
F0.0012722051617860425
sI130
F-0.013328401842633295
sI131
F-0.022444385624299183
ssI103
g8
(tRp114
I128
F0.043166037408582936
sI129
F-0.042391201994289945
sI130
F0.026382371447148806
sI131
F-0.03702556480160028
ssI104
g8
(tRp115
I128
F-0.05292455720479845
sI129
F0.01949690344675943
sI130
F-0.049451725988070995
sI131
F0.03966677320703329
ssI105
g8
(tRp116
I128
F-7.01038597179061e-05
sI129
F-0.0063465726634797884
sI130
F0.017265833003230712
sI131
F0.008172162582165658
ssI106
g8
(tRp117
I128
F-0.0031788161393190963
sI129
F0.019439960646700834
sI130
F-0.05116991857073838
sI131
F0.0003992031843785617
ssI107
g8
(tRp118
I128
F-0.02278178615511116
sI129
F0.031243606410914258
sI130
F-0.031975101687480946
sI131
F0.03969805830868942
ssI108
g8
(tRp119
I128
F-0.03429917228635442
sI129
F0.029853416834282092
sI130
F-0.05522811200332435
sI131
F-0.013644143624267868
ssI109
g8
(tRp120
I128
F0.013695187148843725
sI129
F-0.022654759434626352
sI130
F-0.03455424490191129
sI131
F0.0024146446989226486
ssI110
g8
(tRp121
I128
F-0.017513526472321246
sI129
F0.015258936459629788
sI130
F0.009356792525513215
sI131
F0.004340893475866989
ssI111
g8
(tRp122
I128
F-0.008147362567386456
sI129
F-0.010165137185673662
sI130
F0.012364037966066124
sI131
F-0.012433376237873717
ssI112
g8
(tRp123
I128
F0.0006355093703943974
sI129
F-0.0026920068198821303
sI130
F0.011600332746733487
sI131
F-0.0010198023460872734
ssI113
g8
(tRp124
I128
F-0.009097362244014029
sI129
F0.006744678501300171
sI130
F-0.00872946621668474
sI131
F0.015183164407914588
ssI114
g8
(tRp125
I128
F-0.005140630222768966
sI129
F0.023591207396357457
sI130
F-0.0469738496127018
sI131
F-0.02603090331035959
ssI115
g8
(tRp126
I128
F0.000901075780682341
sI129
F0.00027034017333283896
sI130
F-0.014849648845019502
sI131
F-0.00750498968917127
ssI116
g8
(tRp127
I128
F-0.024224937613294115
sI129
F0.04506057790415211
sI130
F-0.019087228309510988
sI131
F0.016733644790359138
ssI117
g8
(tRp128
I128
F-0.012842404319898503
sI129
F0.003085368412869453
sI130
F0.027059624318290336
sI131
F-0.0024822621400409054
ssI118
g8
(tRp129
I128
F-0.03479850747359222
sI129
F0.013213612510628253
sI130
F-0.042512650347235253
sI131
F0.02133506759358887
ssI119
g8
(tRp130
I128
F-0.015065877797758882
sI129
F-0.02780148945571406
sI130
F0.010395784104544486
sI131
F-0.021881541182054792
ssI120
g8
(tRp131
I128
F-0.04381046820536292
sI129
F0.021180182193922547
sI130
F-0.00033512034220502186
sI131
F-0.02039416832364654
ssI121
g8
(tRp132
I128
F0.011004119422953974
sI129
F-0.01764512358468395
sI130
F0.016448110271812966
sI131
F-0.03674415291539206
ssI122
g8
(tRp133
I128
F-0.022037821508286117
sI129
F-0.005684041205514023
sI130
F-0.00934046309313294
sI131
F-0.02074256021534942
ssI123
g8
(tRp134
I128
F0.03987700624315149
sI129
F-0.06597723309457407
sI130
F0.009331220499879713
sI131
F-0.050928404862248554
ssI124
g8
(tRp135
I128
F0.023802467231674646
sI129
F-0.05121549672030808
sI130
F0.0258595837036513
sI131
F-0.026931675240978687
ssI125
g8
(tRp136
I128
F-0.022330480091978484
sI129
F0.005692065838911056
sI130
F0.008787752448129968
sI131
F0.007501561847107255
ssI126
g8
(tRp137
I128
F-0.04035388745705641
sI129
F0.00886883114446169
sI130
F-0.042350609991703626
sI131
F0.03000805985637231
ssI127
g8
(tRp138
I128
F0.0037315970098312314
sI129
F-0.05073000399703096
sI130
F0.010559753615413479
sI131
F-0.0322422922270535
sssS'output_end'
p139
I132
sb.